(lp0
S'0:1f:3c:ad:fd:be # -29'
p1
aS'0:1f:3c:ad:fd:be # -29'
p2
aS'0:1f:3c:ad:fd:be # -29'
p3
aS'0:1f:3c:ad:fd:be # -3'
p4
aS'0:1f:3c:ad:fd:be # -29'
p5
aS'0:1f:3c:ad:fd:be # -29'
p6
aS'0:1f:3c:ad:fd:be # -29'
p7
aS'0:1f:3c:ad:fd:be # -25'
p8
aS'0:1f:3c:ad:fd:be # -25'
p9
aS'0:1f:3c:ad:fd:be # -25'
p10
aS'0:1f:3c:ad:fd:be # -25'
p11
aS'0:1f:3c:ad:fd:be # -25'
p12
aS'0:1f:3c:ad:fd:be # -25'
p13
aS'0:1f:3c:ad:fd:be # -25'
p14
aS'0:1f:3c:ad:fd:be # -25'
p15
aS'0:1f:3c:ad:fd:be # -25'
p16
aS'0:1f:3c:ad:fd:be # -25'
p17
aS'0:1f:3c:ad:fd:be # -25'
p18
aS'0:1f:3c:ad:fd:be # -25'
p19
aS'0:1f:3c:ad:fd:be # -25'
p20
aS'0:1f:3c:ad:fd:be # -25'
p21
aS'0:1f:3c:ad:fd:be # -25'
p22
aS'0:1f:3c:ad:fd:be # -25'
p23
aS'0:1f:3c:ad:fd:be # -25'
p24
aS'0:1f:3c:ad:fd:be # -25'
p25
aS'0:1f:3c:ad:fd:be # -25'
p26
aS'0:1f:3c:ad:fd:be # -25'
p27
aS'0:1f:3c:ad:fd:be # -25'
p28
aS'0:1f:3c:ad:fd:be # -25'
p29
aS'0:1f:3c:ad:fd:be # -25'
p30
aS'0:1f:3c:ad:fd:be # -25'
p31
aS'0:1f:3c:ad:fd:be # -25'
p32
aS'0:1f:3c:ad:fd:be # -25'
p33
aS'0:1f:3c:ad:fd:be # -25'
p34
aS'0:1f:3c:ad:fd:be # -25'
p35
aS'0:1f:3c:ad:fd:be # -25'
p36
aS'0:1f:3c:ad:fd:be # -25'
p37
aS'0:1f:3c:ad:fd:be # -25'
p38
aS'0:1f:3c:ad:fd:be # -25'
p39
aS'0:1f:3c:ad:fd:be # -25'
p40
aS'0:1f:3c:ad:fd:be # -25'
p41
aS'0:1f:3c:ad:fd:be # -25'
p42
aS'0:1f:3c:ad:fd:be # -25'
p43
aS'0:1f:3c:ad:fd:be # -25'
p44
aS'0:1f:3c:ad:fd:be # -25'
p45
aS'0:1f:3c:ad:fd:be # -25'
p46
aS'0:1f:3c:ad:fd:be # -25'
p47
aS'0:1f:3c:ad:fd:be # -25'
p48
aS'0:1f:3c:ad:fd:be # -25'
p49
aS'0:1f:3c:ad:fd:be # -25'
p50
aS'0:1f:3c:ad:fd:be # -27'
p51
aS'0:1f:3c:ad:fd:be # -25'
p52
aS'0:1f:3c:ad:fd:be # -25'
p53
aS'0:1f:3c:ad:fd:be # -25'
p54
aS'0:1f:3c:ad:fd:be # -25'
p55
aS'0:1f:3c:ad:fd:be # -25'
p56
aS'0:1f:3c:ad:fd:be # -25'
p57
aS'0:1f:3c:ad:fd:be # -25'
p58
aS'0:1f:3c:ad:fd:be # -25'
p59
aS'0:1f:3c:ad:fd:be # -27'
p60
aS'0:1f:3c:ad:fd:be # -25'
p61
aS'0:1f:3c:ad:fd:be # -25'
p62
aS'0:1f:3c:ad:fd:be # -25'
p63
aS'0:1f:3c:ad:fd:be # -25'
p64
aS'0:1f:3c:ad:fd:be # -25'
p65
aS'0:1f:3c:ad:fd:be # -25'
p66
aS'0:1f:3c:ad:fd:be # -25'
p67
aS'0:1f:3c:ad:fd:be # -25'
p68
aS'0:1f:3c:ad:fd:be # -25'
p69
aS'0:1f:3c:ad:fd:be # -25'
p70
aS'0:1f:3c:ad:fd:be # -25'
p71
aS'0:1f:3c:ad:fd:be # -25'
p72
aS'0:1f:3c:ad:fd:be # -25'
p73
aS'0:1f:3c:ad:fd:be # -27'
p74
aS'0:1f:3c:ad:fd:be # -25'
p75
aS'0:1f:3c:ad:fd:be # -25'
p76
aS'0:1f:3c:ad:fd:be # -25'
p77
aS'0:1f:3c:ad:fd:be # -25'
p78
aS'0:1f:3c:ad:fd:be # -27'
p79
aS'0:1f:3c:ad:fd:be # -25'
p80
aS'0:1f:3c:ad:fd:be # -27'
p81
aS'0:1f:3c:ad:fd:be # -25'
p82
aS'0:1f:3c:ad:fd:be # -25'
p83
aS'0:1f:3c:ad:fd:be # -25'
p84
aS'0:1f:3c:ad:fd:be # -25'
p85
aS'0:1f:3c:ad:fd:be # -25'
p86
aS'0:1f:3c:ad:fd:be # -25'
p87
aS'0:1f:3c:ad:fd:be # -25'
p88
aS'0:1f:3c:ad:fd:be # -25'
p89
aS'0:1f:3c:ad:fd:be # -25'
p90
aS'0:1f:3c:ad:fd:be # -25'
p91
aS'0:1f:3c:ad:fd:be # -25'
p92
aS'0:1f:3c:ad:fd:be # -25'
p93
aS'0:1f:3c:ad:fd:be # -27'
p94
aS'0:1f:3c:ad:fd:be # -27'
p95
aS'0:1f:3c:ad:fd:be # -27'
p96
aS'0:1f:3c:ad:fd:be # -27'
p97
aS'0:1f:3c:ad:fd:be # -25'
p98
aS'0:1f:3c:ad:fd:be # -25'
p99
aS'0:1f:3c:ad:fd:be # -25'
p100
aS'0:1f:3c:ad:fd:be # -25'
p101
aS'0:1f:3c:ad:fd:be # -27'
p102
aS'0:1f:3c:ad:fd:be # -25'
p103
aS'0:1f:3c:ad:fd:be # -27'
p104
aS'0:1f:3c:ad:fd:be # -25'
p105
aS'0:1f:3c:ad:fd:be # -25'
p106
aS'0:1f:3c:ad:fd:be # -27'
p107
aS'0:1f:3c:ad:fd:be # -25'
p108
aS'0:1f:3c:ad:fd:be # -25'
p109
aS'0:1f:3c:ad:fd:be # -27'
p110
aS'0:1f:3c:ad:fd:be # -27'
p111
aS'0:1f:3c:ad:fd:be # -25'
p112
aS'0:1f:3c:ad:fd:be # -25'
p113
aS'0:1f:3c:ad:fd:be # -25'
p114
aS'0:1f:3c:ad:fd:be # -25'
p115
aS'0:1f:3c:ad:fd:be # -25'
p116
aS'0:1f:3c:ad:fd:be # -25'
p117
aS'0:1f:3c:ad:fd:be # -25'
p118
aS'0:1f:3c:ad:fd:be # -27'
p119
aS'0:1f:3c:ad:fd:be # -27'
p120
aS'0:1f:3c:ad:fd:be # -25'
p121
aS'0:1f:3c:ad:fd:be # -25'
p122
aS'0:1f:3c:ad:fd:be # -27'
p123
aS'0:1f:3c:ad:fd:be # -27'
p124
aS'0:1f:3c:ad:fd:be # -25'
p125
aS'0:1f:3c:ad:fd:be # -27'
p126
aS'0:1f:3c:ad:fd:be # -27'
p127
aS'0:1f:3c:ad:fd:be # -27'
p128
aS'0:1f:3c:ad:fd:be # -25'
p129
aS'0:1f:3c:ad:fd:be # -27'
p130
aS'0:1f:3c:ad:fd:be # -27'
p131
aS'0:1f:3c:ad:fd:be # -25'
p132
aS'0:1f:3c:ad:fd:be # -27'
p133
aS'0:1f:3c:ad:fd:be # -27'
p134
aS'0:1f:3c:ad:fd:be # -27'
p135
aS'0:1f:3c:ad:fd:be # -25'
p136
aS'0:1f:3c:ad:fd:be # -27'
p137
aS'0:1f:3c:ad:fd:be # -25'
p138
aS'0:1f:3c:ad:fd:be # -27'
p139
aS'0:1f:3c:ad:fd:be # -27'
p140
aS'0:1f:3c:ad:fd:be # -25'
p141
aS'0:1f:3c:ad:fd:be # -27'
p142
aS'0:1f:3c:ad:fd:be # -27'
p143
aS'0:1f:3c:ad:fd:be # -27'
p144
aS'0:1f:3c:ad:fd:be # -27'
p145
aS'0:1f:3c:ad:fd:be # -27'
p146
aS'0:1f:3c:ad:fd:be # -25'
p147
aS'0:1f:3c:ad:fd:be # -27'
p148
aS'0:1f:3c:ad:fd:be # -27'
p149
aS'0:1f:3c:ad:fd:be # -27'
p150
aS'0:1f:3c:ad:fd:be # -27'
p151
aS'0:1f:3c:ad:fd:be # -27'
p152
aS'0:1f:3c:ad:fd:be # -25'
p153
aS'0:1f:3c:ad:fd:be # -27'
p154
aS'0:1f:3c:ad:fd:be # -27'
p155
aS'0:1f:3c:ad:fd:be # -27'
p156
aS'0:1f:3c:ad:fd:be # -25'
p157
aS'0:1f:3c:ad:fd:be # -27'
p158
aS'0:1f:3c:ad:fd:be # -27'
p159
aS'0:1f:3c:ad:fd:be # -25'
p160
aS'0:1f:3c:ad:fd:be # -27'
p161
aS'0:1f:3c:ad:fd:be # -25'
p162
aS'0:1f:3c:ad:fd:be # -25'
p163
aS'0:1f:3c:ad:fd:be # -25'
p164
aS'0:1f:3c:ad:fd:be # -27'
p165
aS'0:1f:3c:ad:fd:be # -3'
p166
aS'0:1f:3c:ad:fd:be # -25'
p167
aS'0:1f:3c:ad:fd:be # -25'
p168
aS'0:1f:3c:ad:fd:be # -25'
p169
aS'0:1f:3c:ad:fd:be # -25'
p170
aS'0:1f:3c:ad:fd:be # -25'
p171
aS'0:1f:3c:ad:fd:be # -27'
p172
aS'0:1f:3c:ad:fd:be # -25'
p173
aS'0:1f:3c:ad:fd:be # -25'
p174
aS'0:1f:3c:ad:fd:be # -25'
p175
aS'0:1f:3c:ad:fd:be # -25'
p176
aS'0:1f:3c:ad:fd:be # -29'
p177
aS'0:1f:3c:ad:fd:be # -29'
p178
aS'0:1f:3c:ad:fd:be # -29'
p179
aS'0:1f:3c:ad:fd:be # -29'
p180
aS'0:1f:3c:ad:fd:be # -25'
p181
aS'0:1f:3c:ad:fd:be # -27'
p182
aS'0:1f:3c:ad:fd:be # -25'
p183
aS'0:1f:3c:ad:fd:be # -25'
p184
aS'0:1f:3c:ad:fd:be # -25'
p185
aS'0:1f:3c:ad:fd:be # -25'
p186
aS'0:1f:3c:ad:fd:be # -25'
p187
aS'0:1f:3c:ad:fd:be # -25'
p188
aS'0:1f:3c:ad:fd:be # -25'
p189
aS'0:1f:3c:ad:fd:be # -27'
p190
aS'0:1f:3c:ad:fd:be # -25'
p191
aS'0:1f:3c:ad:fd:be # -27'
p192
aS'0:1f:3c:ad:fd:be # -25'
p193
aS'0:1f:3c:ad:fd:be # -27'
p194
aS'0:1f:3c:ad:fd:be # -27'
p195
aS'0:1f:3c:ad:fd:be # -27'
p196
aS'0:1f:3c:ad:fd:be # -27'
p197
aS'0:1f:3c:ad:fd:be # -25'
p198
aS'0:1f:3c:ad:fd:be # -25'
p199
aS'0:1f:3c:ad:fd:be # -25'
p200
aS'0:1f:3c:ad:fd:be # -25'
p201
aS'0:1f:3c:ad:fd:be # -25'
p202
aS'0:1f:3c:ad:fd:be # -25'
p203
aS'0:1f:3c:ad:fd:be # -27'
p204
aS'0:1f:3c:ad:fd:be # -25'
p205
aS'0:1f:3c:ad:fd:be # -25'
p206
aS'0:1f:3c:ad:fd:be # -27'
p207
aS'0:1f:3c:ad:fd:be # -27'
p208
aS'0:1f:3c:ad:fd:be # -27'
p209
aS'0:1f:3c:ad:fd:be # -25'
p210
aS'0:1f:3c:ad:fd:be # -27'
p211
aS'0:1f:3c:ad:fd:be # -27'
p212
aS'0:1f:3c:ad:fd:be # -25'
p213
aS'0:1f:3c:ad:fd:be # -27'
p214
aS'0:1f:3c:ad:fd:be # -25'
p215
aS'0:1f:3c:ad:fd:be # -25'
p216
aS'0:1f:3c:ad:fd:be # -25'
p217
aS'0:1f:3c:ad:fd:be # -27'
p218
aS'0:1f:3c:ad:fd:be # -27'
p219
aS'0:1f:3c:ad:fd:be # -25'
p220
aS'0:1f:3c:ad:fd:be # -25'
p221
aS'0:1f:3c:ad:fd:be # -27'
p222
aS'0:1f:3c:ad:fd:be # -25'
p223
aS'0:1f:3c:ad:fd:be # -27'
p224
aS'0:1f:3c:ad:fd:be # -25'
p225
aS'0:1f:3c:ad:fd:be # -27'
p226
aS'0:1f:3c:ad:fd:be # -27'
p227
aS'0:1f:3c:ad:fd:be # -27'
p228
aS'0:1f:3c:ad:fd:be # -25'
p229
aS'0:1f:3c:ad:fd:be # -25'
p230
aS'0:1f:3c:ad:fd:be # -25'
p231
aS'0:1f:3c:ad:fd:be # -27'
p232
aS'0:1f:3c:ad:fd:be # -25'
p233
aS'0:1f:3c:ad:fd:be # -25'
p234
aS'0:1f:3c:ad:fd:be # -25'
p235
aS'0:1f:3c:ad:fd:be # -27'
p236
aS'0:1f:3c:ad:fd:be # -27'
p237
aS'0:1f:3c:ad:fd:be # -27'
p238
aS'0:1f:3c:ad:fd:be # -27'
p239
aS'0:1f:3c:ad:fd:be # -27'
p240
aS'0:1f:3c:ad:fd:be # -27'
p241
aS'0:1f:3c:ad:fd:be # -27'
p242
aS'0:1f:3c:ad:fd:be # -27'
p243
aS'0:1f:3c:ad:fd:be # -27'
p244
aS'0:1f:3c:ad:fd:be # -29'
p245
aS'0:1f:3c:ad:fd:be # -29'
p246
aS'0:1f:3c:ad:fd:be # -27'
p247
aS'0:1f:3c:ad:fd:be # -27'
p248
aS'0:1f:3c:ad:fd:be # -27'
p249
aS'0:1f:3c:ad:fd:be # -27'
p250
aS'0:1f:3c:ad:fd:be # -27'
p251
aS'0:1f:3c:ad:fd:be # -27'
p252
aS'0:1f:3c:ad:fd:be # -27'
p253
aS'0:1f:3c:ad:fd:be # -29'
p254
aS'0:1f:3c:ad:fd:be # -29'
p255
aS'0:1f:3c:ad:fd:be # -29'
p256
aS'0:1f:3c:ad:fd:be # -29'
p257
aS'0:1f:3c:ad:fd:be # -27'
p258
aS'0:1f:3c:ad:fd:be # -27'
p259
aS'0:1f:3c:ad:fd:be # -27'
p260
aS'0:1f:3c:ad:fd:be # -27'
p261
aS'0:1f:3c:ad:fd:be # -27'
p262
aS'0:1f:3c:ad:fd:be # -29'
p263
aS'0:1f:3c:ad:fd:be # -29'
p264
aS'0:1f:3c:ad:fd:be # -29'
p265
aS'0:1f:3c:ad:fd:be # -27'
p266
aS'0:1f:3c:ad:fd:be # -27'
p267
aS'0:1f:3c:ad:fd:be # -27'
p268
aS'0:1f:3c:ad:fd:be # -29'
p269
aS'0:1f:3c:ad:fd:be # -29'
p270
aS'0:1f:3c:ad:fd:be # -29'
p271
aS'0:1f:3c:ad:fd:be # -29'
p272
aS'0:1f:3c:ad:fd:be # -29'
p273
aS'0:1f:3c:ad:fd:be # -29'
p274
aS'0:1f:3c:ad:fd:be # -29'
p275
aS'0:1f:3c:ad:fd:be # -29'
p276
aS'0:1f:3c:ad:fd:be # -29'
p277
aS'0:1f:3c:ad:fd:be # -29'
p278
aS'0:1f:3c:ad:fd:be # -29'
p279
aS'0:1f:3c:ad:fd:be # -29'
p280
aS'0:1f:3c:ad:fd:be # -29'
p281
aS'0:1f:3c:ad:fd:be # -29'
p282
aS'0:1f:3c:ad:fd:be # -29'
p283
aS'0:1f:3c:ad:fd:be # -29'
p284
aS'0:1f:3c:ad:fd:be # -29'
p285
aS'0:1f:3c:ad:fd:be # -29'
p286
aS'0:1f:3c:ad:fd:be # -29'
p287
aS'0:1f:3c:ad:fd:be # -29'
p288
aS'0:1f:3c:ad:fd:be # -29'
p289
aS'0:1f:3c:ad:fd:be # -29'
p290
aS'0:1f:3c:ad:fd:be # -29'
p291
aS'0:1f:3c:ad:fd:be # -29'
p292
aS'0:1f:3c:ad:fd:be # -29'
p293
aS'0:1f:3c:ad:fd:be # -23'
p294
aS'0:1f:3c:ad:fd:be # -1'
p295
aS'0:1f:3c:ad:fd:be # -21'
p296
aS'0:1f:3c:ad:fd:be # -21'
p297
aS'0:1f:3c:ad:fd:be # -25'
p298
aS'0:1f:3c:ad:fd:be # -25'
p299
aS'0:1f:3c:ad:fd:be # -25'
p300
aS'0:1f:3c:ad:fd:be # -25'
p301
aS'0:1f:3c:ad:fd:be # -25'
p302
aS'0:1f:3c:ad:fd:be # -25'
p303
aS'0:1f:3c:ad:fd:be # -25'
p304
aS'0:1f:3c:ad:fd:be # -25'
p305
aS'0:1f:3c:ad:fd:be # -25'
p306
aS'0:1f:3c:ad:fd:be # -25'
p307
aS'0:1f:3c:ad:fd:be # -27'
p308
aS'0:1f:3c:ad:fd:be # -25'
p309
aS'0:1f:3c:ad:fd:be # -25'
p310
aS'0:1f:3c:ad:fd:be # -25'
p311
aS'0:1f:3c:ad:fd:be # -27'
p312
aS'0:1f:3c:ad:fd:be # -27'
p313
aS'0:1f:3c:ad:fd:be # -27'
p314
aS'0:1f:3c:ad:fd:be # -25'
p315
aS'0:1f:3c:ad:fd:be # -25'
p316
aS'0:1f:3c:ad:fd:be # -25'
p317
aS'0:1f:3c:ad:fd:be # -25'
p318
aS'0:1f:3c:ad:fd:be # -25'
p319
aS'0:1f:3c:ad:fd:be # -25'
p320
aS'0:1f:3c:ad:fd:be # -25'
p321
aS'0:1f:3c:ad:fd:be # -25'
p322
aS'0:1f:3c:ad:fd:be # -25'
p323
aS'0:1f:3c:ad:fd:be # -25'
p324
aS'0:1f:3c:ad:fd:be # -25'
p325
aS'0:1f:3c:ad:fd:be # -25'
p326
aS'0:1f:3c:ad:fd:be # -21'
p327
aS'0:1f:3c:ad:fd:be # -21'
p328
aS'0:1f:3c:ad:fd:be # -23'
p329
aS'0:1f:3c:ad:fd:be # -23'
p330
aS'0:1f:3c:ad:fd:be # -21'
p331
aS'0:1f:3c:ad:fd:be # -21'
p332
aS'0:1f:3c:ad:fd:be # -21'
p333
aS'0:1f:3c:ad:fd:be # -21'
p334
aS'0:1f:3c:ad:fd:be # -21'
p335
aS'0:1f:3c:ad:fd:be # -21'
p336
aS'0:1f:3c:ad:fd:be # -21'
p337
aS'0:1f:3c:ad:fd:be # -21'
p338
aS'0:1f:3c:ad:fd:be # -21'
p339
aS'0:1f:3c:ad:fd:be # -21'
p340
aS'0:1f:3c:ad:fd:be # -21'
p341
aS'0:1f:3c:ad:fd:be # -21'
p342
aS'0:1f:3c:ad:fd:be # -19'
p343
aS'0:1f:3c:ad:fd:be # -21'
p344
aS'0:1f:3c:ad:fd:be # -21'
p345
aS'0:1f:3c:ad:fd:be # -21'
p346
aS'0:1f:3c:ad:fd:be # -21'
p347
aS'0:1f:3c:ad:fd:be # -21'
p348
aS'0:1f:3c:ad:fd:be # -21'
p349
aS'0:1f:3c:ad:fd:be # -19'
p350
aS'0:24:d6:67:34:ae # -65'
p351
aS'0:24:d6:67:34:ae # -69'
p352
aS'0:24:d6:67:34:ae # -67'
p353
aS'0:24:d6:67:34:ae # -19'
p354
aS'0:24:d6:67:34:ae # -19'
p355
aS'0:1f:3c:ad:fd:be # -19'
p356
aS'0:1f:3c:ad:fd:be # -19'
p357
aS'0:1f:3c:ad:fd:be # -19'
p358
aS'0:1f:3c:ad:fd:be # -19'
p359
aS'0:1f:3c:ad:fd:be # -19'
p360
aS'0:1f:3c:ad:fd:be # -21'
p361
aS'0:1f:3c:ad:fd:be # -19'
p362
aS'0:1f:3c:ad:fd:be # -19'
p363
aS'0:1f:3c:ad:fd:be # -21'
p364
aS'0:1f:3c:ad:fd:be # -19'
p365
aS'0:1f:3c:ad:fd:be # -19'
p366
aS'0:1f:3c:ad:fd:be # -21'
p367
aS'0:1f:3c:ad:fd:be # -21'
p368
aS'0:1f:3c:ad:fd:be # -21'
p369
aS'0:1f:3c:ad:fd:be # -21'
p370
aS'0:1f:3c:ad:fd:be # -21'
p371
aS'0:1f:3c:ad:fd:be # -21'
p372
aS'0:1f:3c:ad:fd:be # -21'
p373
aS'0:1f:3c:ad:fd:be # -21'
p374
aS'0:1f:3c:ad:fd:be # -21'
p375
aS'0:1f:3c:ad:fd:be # -21'
p376
aS'0:1f:3c:ad:fd:be # -21'
p377
aS'0:1f:3c:ad:fd:be # -21'
p378
aS'0:1f:3c:ad:fd:be # -21'
p379
aS'0:1f:3c:ad:fd:be # -21'
p380
aS'0:1f:3c:ad:fd:be # -21'
p381
aS'0:1f:3c:ad:fd:be # -21'
p382
aS'0:1f:3c:ad:fd:be # -21'
p383
aS'0:1f:3c:ad:fd:be # -21'
p384
aS'0:1f:3c:ad:fd:be # -21'
p385
aS'0:1f:3c:ad:fd:be # -21'
p386
aS'0:1f:3c:ad:fd:be # -21'
p387
aS'0:1f:3c:ad:fd:be # -21'
p388
aS'0:1f:3c:ad:fd:be # -21'
p389
aS'0:1f:3c:ad:fd:be # -21'
p390
aS'0:1f:3c:ad:fd:be # -21'
p391
aS'0:1f:3c:ad:fd:be # -21'
p392
aS'0:1f:3c:ad:fd:be # -23'
p393
aS'0:1f:3c:ad:fd:be # -21'
p394
aS'0:1f:3c:ad:fd:be # -21'
p395
aS'0:1f:3c:ad:fd:be # -21'
p396
aS'0:1f:3c:ad:fd:be # -21'
p397
aS'0:1f:3c:ad:fd:be # -23'
p398
aS'0:1f:3c:ad:fd:be # -23'
p399
aS'0:1f:3c:ad:fd:be # -23'
p400
aS'0:1f:3c:ad:fd:be # -23'
p401
aS'0:1f:3c:ad:fd:be # -23'
p402
aS'0:1f:3c:ad:fd:be # -23'
p403
aS'0:1f:3c:ad:fd:be # -25'
p404
aS'0:1f:3c:ad:fd:be # -25'
p405
aS'0:1f:3c:ad:fd:be # -25'
p406
aS'0:1f:3c:ad:fd:be # -23'
p407
aS'0:1f:3c:ad:fd:be # -23'
p408
aS'0:1f:3c:ad:fd:be # -25'
p409
aS'0:1f:3c:ad:fd:be # -23'
p410
aS'0:1f:3c:ad:fd:be # -23'
p411
aS'0:1f:3c:ad:fd:be # -23'
p412
aS'0:1f:3c:ad:fd:be # -23'
p413
aS'0:1f:3c:ad:fd:be # -25'
p414
aS'0:1f:3c:ad:fd:be # -23'
p415
aS'0:1f:3c:ad:fd:be # -25'
p416
aS'0:1f:3c:ad:fd:be # -25'
p417
aS'0:1f:3c:ad:fd:be # -25'
p418
aS'0:1f:3c:ad:fd:be # -25'
p419
aS'0:1f:3c:ad:fd:be # -25'
p420
aS'0:1f:3c:ad:fd:be # -25'
p421
aS'0:1f:3c:ad:fd:be # -25'
p422
aS'0:1f:3c:ad:fd:be # -25'
p423
aS'0:1f:3c:ad:fd:be # -23'
p424
aS'0:1f:3c:ad:fd:be # -23'
p425
aS'0:1f:3c:ad:fd:be # -23'
p426
aS'0:1f:3c:ad:fd:be # -23'
p427
aS'0:1f:3c:ad:fd:be # -23'
p428
aS'0:1f:3c:ad:fd:be # -23'
p429
aS'0:1f:3c:ad:fd:be # -23'
p430
aS'0:1f:3c:ad:fd:be # -23'
p431
aS'0:1f:3c:ad:fd:be # -23'
p432
aS'0:1f:3c:ad:fd:be # -23'
p433
aS'0:1f:3c:ad:fd:be # -23'
p434
aS'0:1f:3c:ad:fd:be # -21'
p435
aS'0:1f:3c:ad:fd:be # -21'
p436
aS'0:1f:3c:ad:fd:be # -23'
p437
aS'0:1f:3c:ad:fd:be # -21'
p438
aS'0:1f:3c:ad:fd:be # -21'
p439
aS'0:1f:3c:ad:fd:be # -21'
p440
aS'0:1f:3c:ad:fd:be # -23'
p441
aS'0:1f:3c:ad:fd:be # -21'
p442
aS'0:1f:3c:ad:fd:be # -23'
p443
aS'0:1f:3c:ad:fd:be # -23'
p444
aS'0:1f:3c:ad:fd:be # -21'
p445
aS'0:1f:3c:ad:fd:be # -23'
p446
aS'0:1f:3c:ad:fd:be # -23'
p447
aS'0:1f:3c:ad:fd:be # -23'
p448
aS'0:1f:3c:ad:fd:be # -23'
p449
aS'0:1f:3c:ad:fd:be # -23'
p450
aS'0:1f:3c:ad:fd:be # -21'
p451
aS'0:1f:3c:ad:fd:be # -21'
p452
aS'0:1f:3c:ad:fd:be # -23'
p453
aS'0:1f:3c:ad:fd:be # -27'
p454
aS'0:1f:3c:ad:fd:be # -27'
p455
aS'0:1f:3c:ad:fd:be # -27'
p456
aS'0:1f:3c:ad:fd:be # -23'
p457
aS'0:1f:3c:ad:fd:be # -23'
p458
aS'0:1f:3c:ad:fd:be # -23'
p459
aS'0:1f:3c:ad:fd:be # -23'
p460
aS'0:1f:3c:ad:fd:be # -23'
p461
aS'0:1f:3c:ad:fd:be # -17'
p462
aS'0:1f:3c:ad:fd:be # -17'
p463
aS'0:1f:3c:ad:fd:be # -17'
p464
aS'0:1f:3c:ad:fd:be # -17'
p465
aS'0:1f:3c:ad:fd:be # -17'
p466
aS'0:1f:3c:ad:fd:be # -17'
p467
aS'0:1f:3c:ad:fd:be # -17'
p468
aS'0:1f:3c:ad:fd:be # -17'
p469
aS'0:1f:3c:ad:fd:be # -17'
p470
aS'0:1f:3c:ad:fd:be # -17'
p471
aS'0:1f:3c:ad:fd:be # -17'
p472
aS'0:1f:3c:ad:fd:be # -17'
p473
aS'0:1f:3c:ad:fd:be # -17'
p474
aS'0:1f:3c:ad:fd:be # -17'
p475
aS'0:1f:3c:ad:fd:be # -17'
p476
aS'0:1f:3c:ad:fd:be # -17'
p477
aS'0:1f:3c:ad:fd:be # -17'
p478
aS'0:1f:3c:ad:fd:be # -17'
p479
aS'0:1f:3c:ad:fd:be # -17'
p480
aS'0:1f:3c:ad:fd:be # -17'
p481
aS'0:1f:3c:ad:fd:be # -17'
p482
aS'0:1f:3c:ad:fd:be # -17'
p483
aS'0:1f:3c:ad:fd:be # -19'
p484
aS'0:1f:3c:ad:fd:be # -19'
p485
aS'0:1f:3c:ad:fd:be # -19'
p486
aS'0:1f:3c:ad:fd:be # -19'
p487
aS'0:1f:3c:ad:fd:be # -21'
p488
aS'0:1f:3c:ad:fd:be # -19'
p489
aS'0:1f:3c:ad:fd:be # -19'
p490
aS'0:1f:3c:ad:fd:be # -19'
p491
aS'0:1f:3c:ad:fd:be # -21'
p492
aS'0:1f:3c:ad:fd:be # -19'
p493
aS'0:1f:3c:ad:fd:be # -19'
p494
aS'0:1f:3c:ad:fd:be # -19'
p495
aS'0:1f:3c:ad:fd:be # -19'
p496
aS'0:1f:3c:ad:fd:be # -19'
p497
aS'0:1f:3c:ad:fd:be # -19'
p498
aS'0:1f:3c:ad:fd:be # -19'
p499
aS'0:1f:3c:ad:fd:be # -19'
p500
aS'0:1f:3c:ad:fd:be # -21'
p501
aS'0:1f:3c:ad:fd:be # -19'
p502
aS'0:1f:3c:ad:fd:be # -19'
p503
aS'0:1f:3c:ad:fd:be # -19'
p504
aS'0:1f:3c:ad:fd:be # -19'
p505
aS'0:1f:3c:ad:fd:be # -19'
p506
aS'0:1f:3c:ad:fd:be # -21'
p507
aS'0:1f:3c:ad:fd:be # -19'
p508
aS'0:1f:3c:ad:fd:be # -21'
p509
aS'0:1f:3c:ad:fd:be # -19'
p510
aS'0:1f:3c:ad:fd:be # -19'
p511
aS'0:1f:3c:ad:fd:be # -19'
p512
aS'0:1f:3c:ad:fd:be # -19'
p513
aS'0:1f:3c:ad:fd:be # -19'
p514
aS'0:1f:3c:ad:fd:be # -19'
p515
aS'0:1f:3c:ad:fd:be # -19'
p516
aS'0:1f:3c:ad:fd:be # -21'
p517
aS'0:1f:3c:ad:fd:be # -19'
p518
aS'0:1f:3c:ad:fd:be # -19'
p519
aS'0:1f:3c:ad:fd:be # -19'
p520
aS'0:1f:3c:ad:fd:be # -19'
p521
aS'0:1f:3c:ad:fd:be # -19'
p522
aS'0:1f:3c:ad:fd:be # -19'
p523
aS'0:1f:3c:ad:fd:be # -19'
p524
aS'0:1f:3c:ad:fd:be # -19'
p525
aS'0:1f:3c:ad:fd:be # -19'
p526
aS'0:1f:3c:ad:fd:be # -19'
p527
aS'0:1f:3c:ad:fd:be # -21'
p528
aS'0:1f:3c:ad:fd:be # -21'
p529
aS'0:1f:3c:ad:fd:be # -21'
p530
aS'0:1f:3c:ad:fd:be # -19'
p531
aS'0:1f:3c:ad:fd:be # -21'
p532
aS'0:1f:3c:ad:fd:be # -21'
p533
aS'0:1f:3c:ad:fd:be # -19'
p534
aS'0:1f:3c:ad:fd:be # -19'
p535
aS'0:1f:3c:ad:fd:be # -21'
p536
aS'0:1f:3c:ad:fd:be # -19'
p537
aS'0:1f:3c:ad:fd:be # -21'
p538
aS'0:1f:3c:ad:fd:be # -21'
p539
aS'0:1f:3c:ad:fd:be # -21'
p540
aS'0:1f:3c:ad:fd:be # -21'
p541
aS'0:1f:3c:ad:fd:be # -21'
p542
aS'0:1f:3c:ad:fd:be # -23'
p543
aS'0:1f:3c:ad:fd:be # -23'
p544
aS'0:1f:3c:ad:fd:be # -23'
p545
aS'0:1f:3c:ad:fd:be # -23'
p546
aS'0:1f:3c:ad:fd:be # -21'
p547
aS'0:1f:3c:ad:fd:be # -23'
p548
aS'0:1f:3c:ad:fd:be # -23'
p549
aS'0:1f:3c:ad:fd:be # -23'
p550
aS'0:1f:3c:ad:fd:be # -25'
p551
aS'0:1f:3c:ad:fd:be # -23'
p552
aS'0:1f:3c:ad:fd:be # -25'
p553
aS'0:1f:3c:ad:fd:be # -25'
p554
aS'0:1f:3c:ad:fd:be # -27'
p555
aS'0:1f:3c:ad:fd:be # -31'
p556
aS'0:1f:3c:ad:fd:be # -33'
p557
aS'0:1f:3c:ad:fd:be # -25'
p558
aS'0:1f:3c:ad:fd:be # -25'
p559
aS'0:1f:3c:ad:fd:be # -25'
p560
aS'0:1f:3c:ad:fd:be # -25'
p561
aS'0:1f:3c:ad:fd:be # -25'
p562
aS'0:1f:3c:ad:fd:be # -25'
p563
aS'0:1f:3c:ad:fd:be # -27'
p564
aS'0:1f:3c:ad:fd:be # -27'
p565
aS'0:1f:3c:ad:fd:be # -25'
p566
aS'0:1f:3c:ad:fd:be # -25'
p567
aS'0:1f:3c:ad:fd:be # -25'
p568
aS'0:1f:3c:ad:fd:be # -25'
p569
aS'0:1f:3c:ad:fd:be # -25'
p570
aS'0:1f:3c:ad:fd:be # -25'
p571
aS'0:1f:3c:ad:fd:be # -25'
p572
aS'0:1f:3c:ad:fd:be # -25'
p573
aS'0:1f:3c:ad:fd:be # -25'
p574
aS'0:1f:3c:ad:fd:be # -25'
p575
aS'0:1f:3c:ad:fd:be # -25'
p576
aS'0:1f:3c:ad:fd:be # -27'
p577
aS'0:1f:3c:ad:fd:be # -25'
p578
aS'0:1f:3c:ad:fd:be # -27'
p579
aS'0:1f:3c:ad:fd:be # -25'
p580
aS'0:1f:3c:ad:fd:be # -25'
p581
aS'0:1f:3c:ad:fd:be # -25'
p582
aS'0:1f:3c:ad:fd:be # -27'
p583
aS'0:1f:3c:ad:fd:be # -25'
p584
aS'0:1f:3c:ad:fd:be # -25'
p585
aS'0:1f:3c:ad:fd:be # -27'
p586
aS'0:1f:3c:ad:fd:be # -25'
p587
aS'0:1f:3c:ad:fd:be # -25'
p588
aS'0:1f:3c:ad:fd:be # -21'
p589
aS'0:1f:3c:ad:fd:be # -21'
p590
aS'0:1f:3c:ad:fd:be # -21'
p591
aS'0:1f:3c:ad:fd:be # -21'
p592
aS'0:1f:3c:ad:fd:be # -21'
p593
aS'0:1f:3c:ad:fd:be # -21'
p594
aS'0:1f:3c:ad:fd:be # -21'
p595
aS'0:1f:3c:ad:fd:be # -21'
p596
aS'0:1f:3c:ad:fd:be # -21'
p597
aS'0:1f:3c:ad:fd:be # -21'
p598
aS'0:1f:3c:ad:fd:be # -21'
p599
aS'0:1f:3c:ad:fd:be # -21'
p600
aS'0:1f:3c:ad:fd:be # -21'
p601
aS'0:1f:3c:ad:fd:be # -21'
p602
aS'0:1f:3c:ad:fd:be # -23'
p603
aS'0:1f:3c:ad:fd:be # -21'
p604
aS'0:1f:3c:ad:fd:be # -23'
p605
aS'0:1f:3c:ad:fd:be # -21'
p606
aS'0:1f:3c:ad:fd:be # -23'
p607
aS'0:1f:3c:ad:fd:be # -23'
p608
aS'0:1f:3c:ad:fd:be # -21'
p609
aS'0:1f:3c:ad:fd:be # -23'
p610
aS'0:1f:3c:ad:fd:be # -23'
p611
aS'0:1f:3c:ad:fd:be # -23'
p612
aS'0:1f:3c:ad:fd:be # -23'
p613
aS'0:1f:3c:ad:fd:be # -23'
p614
aS'0:1f:3c:ad:fd:be # -23'
p615
aS'0:1f:3c:ad:fd:be # -23'
p616
aS'0:1f:3c:ad:fd:be # -23'
p617
aS'0:1f:3c:ad:fd:be # -23'
p618
aS'0:1f:3c:ad:fd:be # -23'
p619
aS'0:1f:3c:ad:fd:be # -23'
p620
aS'0:1f:3c:ad:fd:be # -23'
p621
aS'0:1f:3c:ad:fd:be # -25'
p622
aS'0:1f:3c:ad:fd:be # -25'
p623
aS'0:1f:3c:ad:fd:be # -25'
p624
aS'0:1f:3c:ad:fd:be # -23'
p625
aS'0:1f:3c:ad:fd:be # -33'
p626
aS'0:1f:3c:ad:fd:be # -33'
p627
aS'0:1f:3c:ad:fd:be # -35'
p628
aS'0:1f:3c:ad:fd:be # -35'
p629
aS'0:1f:3c:ad:fd:be # -35'
p630
aS'0:1f:3c:ad:fd:be # -35'
p631
aS'0:1f:3c:ad:fd:be # -35'
p632
aS'0:1f:3c:ad:fd:be # -35'
p633
aS'0:1f:3c:ad:fd:be # -35'
p634
aS'0:1f:3c:ad:fd:be # -31'
p635
aS'0:1f:3c:ad:fd:be # -29'
p636
aS'0:1f:3c:ad:fd:be # -29'
p637
aS'0:1f:3c:ad:fd:be # -29'
p638
aS'0:1f:3c:ad:fd:be # -29'
p639
aS'0:1f:3c:ad:fd:be # -31'
p640
aS'0:1f:3c:ad:fd:be # -31'
p641
aS'0:1f:3c:ad:fd:be # -31'
p642
aS'0:1f:3c:ad:fd:be # -31'
p643
aS'0:1f:3c:ad:fd:be # -31'
p644
aS'0:1f:3c:ad:fd:be # -31'
p645
aS'0:1f:3c:ad:fd:be # -31'
p646
aS'0:1f:3c:ad:fd:be # -31'
p647
aS'0:1f:3c:ad:fd:be # -31'
p648
aS'0:1f:3c:ad:fd:be # -31'
p649
aS'0:1f:3c:ad:fd:be # -31'
p650
aS'0:1f:3c:ad:fd:be # -31'
p651
aS'0:1f:3c:ad:fd:be # -31'
p652
aS'0:1f:3c:ad:fd:be # -31'
p653
aS'0:1f:3c:ad:fd:be # -31'
p654
aS'0:1f:3c:ad:fd:be # -33'
p655
aS'0:1f:3c:ad:fd:be # -31'
p656
aS'0:1f:3c:ad:fd:be # -31'
p657
aS'0:1f:3c:ad:fd:be # -33'
p658
aS'0:1f:3c:ad:fd:be # -33'
p659
aS'0:1f:3c:ad:fd:be # -31'
p660
aS'0:1f:3c:ad:fd:be # -31'
p661
aS'0:1f:3c:ad:fd:be # -33'
p662
aS'0:1f:3c:ad:fd:be # -33'
p663
aS'0:1f:3c:ad:fd:be # -31'
p664
aS'0:1f:3c:ad:fd:be # -31'
p665
aS'0:1f:3c:ad:fd:be # -31'
p666
aS'0:1f:3c:ad:fd:be # -31'
p667
aS'0:1f:3c:ad:fd:be # -33'
p668
aS'0:1f:3c:ad:fd:be # -31'
p669
aS'0:1f:3c:ad:fd:be # -31'
p670
aS'0:1f:3c:ad:fd:be # -31'
p671
aS'0:1f:3c:ad:fd:be # -31'
p672
aS'0:1f:3c:ad:fd:be # -31'
p673
aS'0:1f:3c:ad:fd:be # -31'
p674
aS'0:1f:3c:ad:fd:be # -31'
p675
aS'0:1f:3c:ad:fd:be # -31'
p676
aS'0:1f:3c:ad:fd:be # -31'
p677
aS'0:1f:3c:ad:fd:be # -31'
p678
aS'0:1f:3c:ad:fd:be # -29'
p679
aS'0:1f:3c:ad:fd:be # -31'
p680
aS'0:1f:3c:ad:fd:be # -33'
p681
aS'0:1f:3c:ad:fd:be # -31'
p682
aS'0:1f:3c:ad:fd:be # -31'
p683
aS'0:1f:3c:ad:fd:be # -31'
p684
aS'0:1f:3c:ad:fd:be # -31'
p685
aS'0:1f:3c:ad:fd:be # -31'
p686
aS'0:1f:3c:ad:fd:be # -31'
p687
aS'0:1f:3c:ad:fd:be # -31'
p688
aS'0:1f:3c:ad:fd:be # -31'
p689
aS'0:1f:3c:ad:fd:be # -31'
p690
aS'0:1f:3c:ad:fd:be # -33'
p691
aS'0:1f:3c:ad:fd:be # -31'
p692
aS'0:1f:3c:ad:fd:be # -33'
p693
aS'0:1f:3c:ad:fd:be # -33'
p694
aS'0:1f:3c:ad:fd:be # -33'
p695
aS'0:1f:3c:ad:fd:be # -33'
p696
aS'0:1f:3c:ad:fd:be # -33'
p697
aS'0:1f:3c:ad:fd:be # -33'
p698
aS'0:1f:3c:ad:fd:be # -33'
p699
aS'0:1f:3c:ad:fd:be # -33'
p700
aS'0:1f:3c:ad:fd:be # -33'
p701
aS'0:1f:3c:ad:fd:be # -33'
p702
aS'0:1f:3c:ad:fd:be # -33'
p703
aS'0:1f:3c:ad:fd:be # -33'
p704
aS'0:1f:3c:ad:fd:be # -31'
p705
aS'0:1f:3c:ad:fd:be # -31'
p706
aS'0:1f:3c:ad:fd:be # -31'
p707
aS'0:1f:3c:ad:fd:be # -29'
p708
aS'0:1f:3c:ad:fd:be # -29'
p709
aS'0:1f:3c:ad:fd:be # -27'
p710
aS'0:1f:3c:ad:fd:be # -5'
p711
aS'0:1f:3c:ad:fd:be # -27'
p712
aS'0:1f:3c:ad:fd:be # -27'
p713
aS'0:1f:3c:ad:fd:be # -29'
p714
aS'0:1f:3c:ad:fd:be # -27'
p715
aS'0:1f:3c:ad:fd:be # -29'
p716
aS'0:1f:3c:ad:fd:be # -29'
p717
aS'0:1f:3c:ad:fd:be # -29'
p718
aS'0:1f:3c:ad:fd:be # -23'
p719
aS'0:1f:3c:ad:fd:be # -23'
p720
aS'0:1f:3c:ad:fd:be # -25'
p721
aS'0:1f:3c:ad:fd:be # -25'
p722
aS'0:1f:3c:ad:fd:be # -27'
p723
aS'0:1f:3c:ad:fd:be # -27'
p724
aS'0:1f:3c:ad:fd:be # -27'
p725
aS'0:1f:3c:ad:fd:be # -29'
p726
aS'0:1f:3c:ad:fd:be # -29'
p727
aS'0:1f:3c:ad:fd:be # -27'
p728
aS'0:1f:3c:ad:fd:be # -29'
p729
aS'0:1f:3c:ad:fd:be # -27'
p730
aS'0:1f:3c:ad:fd:be # -27'
p731
aS'0:1f:3c:ad:fd:be # -27'
p732
aS'0:1f:3c:ad:fd:be # -27'
p733
aS'0:1f:3c:ad:fd:be # -27'
p734
aS'0:1f:3c:ad:fd:be # -27'
p735
aS'0:1f:3c:ad:fd:be # -29'
p736
aS'0:1f:3c:ad:fd:be # -27'
p737
aS'0:1f:3c:ad:fd:be # -27'
p738
aS'0:1f:3c:ad:fd:be # -29'
p739
aS'0:1f:3c:ad:fd:be # -27'
p740
aS'0:1f:3c:ad:fd:be # -27'
p741
aS'0:1f:3c:ad:fd:be # -29'
p742
aS'0:1f:3c:ad:fd:be # -27'
p743
aS'0:1f:3c:ad:fd:be # -27'
p744
aS'0:1f:3c:ad:fd:be # -27'
p745
aS'0:1f:3c:ad:fd:be # -27'
p746
aS'0:1f:3c:ad:fd:be # -27'
p747
aS'0:1f:3c:ad:fd:be # -27'
p748
aS'0:1f:3c:ad:fd:be # -27'
p749
aS'0:1f:3c:ad:fd:be # -29'
p750
aS'0:1f:3c:ad:fd:be # -29'
p751
aS'0:1f:3c:ad:fd:be # -29'
p752
aS'0:1f:3c:ad:fd:be # -29'
p753
aS'0:1f:3c:ad:fd:be # -29'
p754
aS'0:1f:3c:ad:fd:be # -29'
p755
aS'0:1f:3c:ad:fd:be # -29'
p756
aS'0:1f:3c:ad:fd:be # -29'
p757
aS'0:1f:3c:ad:fd:be # -27'
p758
aS'0:1f:3c:ad:fd:be # -27'
p759
aS'0:1f:3c:ad:fd:be # -27'
p760
aS'0:1f:3c:ad:fd:be # -23'
p761
aS'0:1f:3c:ad:fd:be # -23'
p762
aS'0:1f:3c:ad:fd:be # -3'
p763
aS'0:1f:3c:ad:fd:be # -23'
p764
aS'0:1f:3c:ad:fd:be # -23'
p765
aS'0:1f:3c:ad:fd:be # -23'
p766
aS'0:1f:3c:ad:fd:be # -23'
p767
aS'0:1f:3c:ad:fd:be # -23'
p768
aS'0:1f:3c:ad:fd:be # -23'
p769
aS'0:1f:3c:ad:fd:be # -23'
p770
aS'0:1f:3c:ad:fd:be # -23'
p771
aS'0:1f:3c:ad:fd:be # -23'
p772
aS'0:1f:3c:ad:fd:be # -23'
p773
aS'0:1f:3c:ad:fd:be # -23'
p774
aS'0:1f:3c:ad:fd:be # -25'
p775
aS'0:1f:3c:ad:fd:be # -25'
p776
aS'0:1f:3c:ad:fd:be # -25'
p777
aS'0:1f:3c:ad:fd:be # -25'
p778
aS'0:1f:3c:ad:fd:be # -27'
p779
aS'0:1f:3c:ad:fd:be # -25'
p780
aS'0:1f:3c:ad:fd:be # -25'
p781
aS'0:1f:3c:ad:fd:be # -25'
p782
aS'0:1f:3c:ad:fd:be # -25'
p783
aS'0:1f:3c:ad:fd:be # -25'
p784
aS'0:1f:3c:ad:fd:be # -25'
p785
aS'0:1f:3c:ad:fd:be # -25'
p786
aS'0:1f:3c:ad:fd:be # -25'
p787
aS'0:1f:3c:ad:fd:be # -25'
p788
aS'0:1f:3c:ad:fd:be # -25'
p789
aS'0:1f:3c:ad:fd:be # -25'
p790
aS'0:1f:3c:ad:fd:be # -25'
p791
aS'0:1f:3c:ad:fd:be # -25'
p792
aS'0:1f:3c:ad:fd:be # -25'
p793
aS'0:1f:3c:ad:fd:be # -25'
p794
aS'0:1f:3c:ad:fd:be # -23'
p795
aS'0:1f:3c:ad:fd:be # -23'
p796
aS'0:1f:3c:ad:fd:be # -23'
p797
aS'0:1f:3c:ad:fd:be # -23'
p798
aS'0:1f:3c:ad:fd:be # -23'
p799
aS'0:1f:3c:ad:fd:be # -23'
p800
aS'0:1f:3c:ad:fd:be # -23'
p801
aS'0:1f:3c:ad:fd:be # -23'
p802
aS'0:1f:3c:ad:fd:be # -23'
p803
aS'0:1f:3c:ad:fd:be # -23'
p804
aS'0:1f:3c:ad:fd:be # -23'
p805
aS'0:1f:3c:ad:fd:be # -23'
p806
aS'0:1f:3c:ad:fd:be # -23'
p807
aS'0:1f:3c:ad:fd:be # -23'
p808
aS'0:1f:3c:ad:fd:be # -23'
p809
aS'0:1f:3c:ad:fd:be # -23'
p810
aS'0:1f:3c:ad:fd:be # -23'
p811
aS'0:1f:3c:ad:fd:be # -23'
p812
aS'0:1f:3c:ad:fd:be # -23'
p813
aS'0:1f:3c:ad:fd:be # -23'
p814
aS'0:1f:3c:ad:fd:be # -23'
p815
aS'0:1f:3c:ad:fd:be # -25'
p816
aS'0:1f:3c:ad:fd:be # -25'
p817
aS'0:1f:3c:ad:fd:be # -25'
p818
aS'0:1f:3c:ad:fd:be # -27'
p819
aS'0:1f:3c:ad:fd:be # -25'
p820
aS'0:1f:3c:ad:fd:be # -27'
p821
aS'0:1f:3c:ad:fd:be # -25'
p822
aS'0:1f:3c:ad:fd:be # -25'
p823
aS'0:1f:3c:ad:fd:be # -25'
p824
aS'0:1f:3c:ad:fd:be # -25'
p825
aS'0:1f:3c:ad:fd:be # -25'
p826
aS'0:1f:3c:ad:fd:be # -25'
p827
aS'0:1f:3c:ad:fd:be # -27'
p828
aS'0:1f:3c:ad:fd:be # -25'
p829
aS'0:1f:3c:ad:fd:be # -27'
p830
aS'0:1f:3c:ad:fd:be # -27'
p831
aS'0:1f:3c:ad:fd:be # -27'
p832
aS'0:1f:3c:ad:fd:be # -27'
p833
aS'0:1f:3c:ad:fd:be # -27'
p834
aS'0:1f:3c:ad:fd:be # -27'
p835
aS'0:1f:3c:ad:fd:be # -27'
p836
aS'0:1f:3c:ad:fd:be # -27'
p837
aS'0:1f:3c:ad:fd:be # -27'
p838
aS'0:1f:3c:ad:fd:be # -27'
p839
aS'0:1f:3c:ad:fd:be # -27'
p840
aS'0:1f:3c:ad:fd:be # -27'
p841
aS'0:1f:3c:ad:fd:be # -27'
p842
aS'0:1f:3c:ad:fd:be # -27'
p843
aS'0:1f:3c:ad:fd:be # -27'
p844
aS'0:1f:3c:ad:fd:be # -27'
p845
aS'0:1f:3c:ad:fd:be # -29'
p846
aS'0:1f:3c:ad:fd:be # -29'
p847
aS'0:1f:3c:ad:fd:be # -29'
p848
aS'0:1f:3c:ad:fd:be # -29'
p849
aS'0:1f:3c:ad:fd:be # -29'
p850
aS'0:1f:3c:ad:fd:be # -29'
p851
aS'0:1f:3c:ad:fd:be # -29'
p852
aS'0:1f:3c:ad:fd:be # -31'
p853
aS'0:1f:3c:ad:fd:be # -29'
p854
aS'0:1f:3c:ad:fd:be # -29'
p855
aS'0:1f:3c:ad:fd:be # -31'
p856
aS'0:1f:3c:ad:fd:be # -29'
p857
aS'0:1f:3c:ad:fd:be # -31'
p858
aS'0:1f:3c:ad:fd:be # -25'
p859
aS'0:1f:3c:ad:fd:be # -3'
p860
aS'0:1f:3c:ad:fd:be # -25'
p861
aS'0:1f:3c:ad:fd:be # -27'
p862
aS'0:1f:3c:ad:fd:be # -31'
p863
aS'0:1f:3c:ad:fd:be # -31'
p864
aS'0:1f:3c:ad:fd:be # -31'
p865
aS'0:1f:3c:ad:fd:be # -31'
p866
aS'0:1f:3c:ad:fd:be # -31'
p867
aS'0:1f:3c:ad:fd:be # -31'
p868
aS'0:1f:3c:ad:fd:be # -31'
p869
aS'0:1f:3c:ad:fd:be # -27'
p870
aS'0:1f:3c:ad:fd:be # -27'
p871
aS'0:1f:3c:ad:fd:be # -27'
p872
aS'0:1f:3c:ad:fd:be # -27'
p873
aS'0:1f:3c:ad:fd:be # -27'
p874
aS'0:1f:3c:ad:fd:be # -29'
p875
aS'0:1f:3c:ad:fd:be # -27'
p876
aS'0:1f:3c:ad:fd:be # -27'
p877
aS'0:1f:3c:ad:fd:be # -27'
p878
aS'0:1f:3c:ad:fd:be # -29'
p879
aS'0:1f:3c:ad:fd:be # -27'
p880
aS'0:1f:3c:ad:fd:be # -27'
p881
aS'0:1f:3c:ad:fd:be # -27'
p882
aS'0:1f:3c:ad:fd:be # -29'
p883
aS'0:1f:3c:ad:fd:be # -27'
p884
aS'0:1f:3c:ad:fd:be # -27'
p885
aS'0:1f:3c:ad:fd:be # -27'
p886
aS'0:1f:3c:ad:fd:be # -27'
p887
aS'0:1f:3c:ad:fd:be # -27'
p888
aS'0:1f:3c:ad:fd:be # -29'
p889
aS'0:1f:3c:ad:fd:be # -29'
p890
aS'0:1f:3c:ad:fd:be # -27'
p891
aS'0:1f:3c:ad:fd:be # -27'
p892
aS'0:1f:3c:ad:fd:be # -29'
p893
aS'0:1f:3c:ad:fd:be # -29'
p894
aS'0:1f:3c:ad:fd:be # -31'
p895
aS'0:1f:3c:ad:fd:be # -31'
p896
aS'0:1f:3c:ad:fd:be # -31'
p897
aS'0:1f:3c:ad:fd:be # -33'
p898
aS'0:1f:3c:ad:fd:be # -31'
p899
aS'0:1f:3c:ad:fd:be # -33'
p900
aS'0:1f:3c:ad:fd:be # -33'
p901
aS'0:1f:3c:ad:fd:be # -33'
p902
aS'0:1f:3c:ad:fd:be # -33'
p903
aS'0:1f:3c:ad:fd:be # -33'
p904
aS'0:1f:3c:ad:fd:be # -33'
p905
aS'0:1f:3c:ad:fd:be # -33'
p906
aS'0:1f:3c:ad:fd:be # -33'
p907
aS'0:1f:3c:ad:fd:be # -33'
p908
aS'0:1f:3c:ad:fd:be # -33'
p909
aS'0:1f:3c:ad:fd:be # -35'
p910
aS'0:1f:3c:ad:fd:be # -33'
p911
aS'0:1f:3c:ad:fd:be # -33'
p912
aS'0:1f:3c:ad:fd:be # -33'
p913
aS'0:1f:3c:ad:fd:be # -33'
p914
aS'0:1f:3c:ad:fd:be # -33'
p915
aS'0:1f:3c:ad:fd:be # -33'
p916
aS'0:1f:3c:ad:fd:be # -33'
p917
aS'0:1f:3c:ad:fd:be # -33'
p918
aS'0:1f:3c:ad:fd:be # -33'
p919
aS'0:1f:3c:ad:fd:be # -33'
p920
aS'0:1f:3c:ad:fd:be # -33'
p921
aS'0:1f:3c:ad:fd:be # -33'
p922
aS'0:1f:3c:ad:fd:be # -33'
p923
aS'0:1f:3c:ad:fd:be # -33'
p924
aS'0:1f:3c:ad:fd:be # -31'
p925
aS'0:1f:3c:ad:fd:be # -31'
p926
aS'0:1f:3c:ad:fd:be # -31'
p927
aS'0:1f:3c:ad:fd:be # -31'
p928
aS'0:1f:3c:ad:fd:be # -31'
p929
aS'0:1f:3c:ad:fd:be # -31'
p930
aS'0:1f:3c:ad:fd:be # -23'
p931
aS'0:1f:3c:ad:fd:be # -23'
p932
aS'0:1f:3c:ad:fd:be # -25'
p933
aS'0:1f:3c:ad:fd:be # -35'
p934
aS'0:1f:3c:ad:fd:be # -29'
p935
aS'0:1f:3c:ad:fd:be # -29'
p936
aS'0:1f:3c:ad:fd:be # -29'
p937
aS'0:1f:3c:ad:fd:be # -29'
p938
aS'0:1f:3c:ad:fd:be # -29'
p939
aS'0:1f:3c:ad:fd:be # -33'
p940
aS'0:1f:3c:ad:fd:be # -35'
p941
aS'0:1f:3c:ad:fd:be # -35'
p942
aS'0:1f:3c:ad:fd:be # -33'
p943
aS'0:1f:3c:ad:fd:be # -33'
p944
aS'0:1f:3c:ad:fd:be # -25'
p945
aS'0:1f:3c:ad:fd:be # -27'
p946
aS'0:1f:3c:ad:fd:be # -31'
p947
aS'0:1f:3c:ad:fd:be # -33'
p948
aS'0:1f:3c:ad:fd:be # -33'
p949
aS'0:1f:3c:ad:fd:be # -39'
p950
aS'0:1f:3c:ad:fd:be # -39'
p951
aS'0:1f:3c:ad:fd:be # -41'
p952
aS'0:1f:3c:ad:fd:be # -29'
p953
aS'0:1f:3c:ad:fd:be # -33'
p954
aS'0:1f:3c:ad:fd:be # -27'
p955
aS'0:1f:3c:ad:fd:be # -25'
p956
aS'0:1f:3c:ad:fd:be # -27'
p957
aS'0:1f:3c:ad:fd:be # -27'
p958
aS'0:1f:3c:ad:fd:be # -25'
p959
aS'0:1f:3c:ad:fd:be # -25'
p960
aS'0:1f:3c:ad:fd:be # -25'
p961
aS'0:1f:3c:ad:fd:be # -45'
p962
aS'0:1f:3c:ad:fd:be # -41'
p963
aS'0:1f:3c:ad:fd:be # -29'
p964
aS'0:1f:3c:ad:fd:be # -29'
p965
aS'0:1f:3c:ad:fd:be # -33'
p966
aS'0:1f:3c:ad:fd:be # -33'
p967
aS'0:1f:3c:ad:fd:be # -25'
p968
aS'0:1f:3c:ad:fd:be # -25'
p969
aS'0:1f:3c:ad:fd:be # -25'
p970
aS'0:1f:3c:ad:fd:be # -39'
p971
aS'0:1f:3c:ad:fd:be # -31'
p972
aS'0:1f:3c:ad:fd:be # -31'
p973
aS'0:1f:3c:ad:fd:be # -31'
p974
aS'0:1f:3c:ad:fd:be # -31'
p975
aS'0:1f:3c:ad:fd:be # -31'
p976
aS'0:1f:3c:ad:fd:be # -31'
p977
aS'0:1f:3c:ad:fd:be # -27'
p978
aS'0:1f:3c:ad:fd:be # -35'
p979
aS'0:1f:3c:ad:fd:be # -29'
p980
aS'0:1f:3c:ad:fd:be # -29'
p981
aS'0:1f:3c:ad:fd:be # -31'
p982
aS'0:1f:3c:ad:fd:be # -31'
p983
aS'0:1f:3c:ad:fd:be # -49'
p984
aS'0:1f:3c:ad:fd:be # -31'
p985
aS'0:1f:3c:ad:fd:be # -39'
p986
aS'0:1f:3c:ad:fd:be # -33'
p987
aS'0:1f:3c:ad:fd:be # -33'
p988
aS'0:1f:3c:ad:fd:be # -31'
p989
aS'0:1f:3c:ad:fd:be # -31'
p990
aS'0:1f:3c:ad:fd:be # -1'
p991
aS'0:1f:3c:ad:fd:be # -29'
p992
aS'0:1f:3c:ad:fd:be # -27'
p993
aS'0:1f:3c:ad:fd:be # -33'
p994
aS'0:1f:3c:ad:fd:be # -33'
p995
aS'0:1f:3c:ad:fd:be # -35'
p996
aS'0:1f:3c:ad:fd:be # -33'
p997
aS'0:1f:3c:ad:fd:be # -31'
p998
aS'0:1f:3c:ad:fd:be # -31'
p999
aS'0:1f:3c:ad:fd:be # -33'
p1000
aS'0:1f:3c:ad:fd:be # -35'
p1001
aS'0:1f:3c:ad:fd:be # -3'
p1002
aS'0:1f:3c:ad:fd:be # -31'
p1003
aS'0:1f:3c:ad:fd:be # -29'
p1004
aS'0:1f:3c:ad:fd:be # -29'
p1005
aS'0:1f:3c:ad:fd:be # -29'
p1006
aS'0:1f:3c:ad:fd:be # -35'
p1007
aS'0:1f:3c:ad:fd:be # -35'
p1008
aS'0:1f:3c:ad:fd:be # -35'
p1009
aS'0:1f:3c:ad:fd:be # -35'
p1010
aS'0:1f:3c:ad:fd:be # -35'
p1011
aS'0:1f:3c:ad:fd:be # -35'
p1012
aS'0:1f:3c:ad:fd:be # -35'
p1013
aS'0:1f:3c:ad:fd:be # -33'
p1014
aS'0:1f:3c:ad:fd:be # -33'
p1015
aS'0:1f:3c:ad:fd:be # -35'
p1016
aS'0:1f:3c:ad:fd:be # -33'
p1017
aS'0:1f:3c:ad:fd:be # -33'
p1018
aS'0:1f:3c:ad:fd:be # -33'
p1019
aS'0:1f:3c:ad:fd:be # -33'
p1020
aS'0:1f:3c:ad:fd:be # -33'
p1021
aS'0:1f:3c:ad:fd:be # -33'
p1022
aS'0:1f:3c:ad:fd:be # -35'
p1023
aS'0:1f:3c:ad:fd:be # -35'
p1024
aS'0:1f:3c:ad:fd:be # -35'
p1025
aS'0:1f:3c:ad:fd:be # -35'
p1026
aS'0:1f:3c:ad:fd:be # -33'
p1027
aS'0:1f:3c:ad:fd:be # -33'
p1028
aS'0:1f:3c:ad:fd:be # -27'
p1029
aS'0:1f:3c:ad:fd:be # -27'
p1030
aS'0:1f:3c:ad:fd:be # -27'
p1031
aS'0:1f:3c:ad:fd:be # -27'
p1032
aS'0:1f:3c:ad:fd:be # -27'
p1033
aS'0:1f:3c:ad:fd:be # -27'
p1034
aS'0:1f:3c:ad:fd:be # -27'
p1035
aS'0:1f:3c:ad:fd:be # -27'
p1036
aS'0:1f:3c:ad:fd:be # -27'
p1037
aS'0:1f:3c:ad:fd:be # -27'
p1038
aS'0:1f:3c:ad:fd:be # -27'
p1039
aS'0:1f:3c:ad:fd:be # -29'
p1040
aS'0:1f:3c:ad:fd:be # -33'
p1041
aS'0:1f:3c:ad:fd:be # -33'
p1042
aS'0:1f:3c:ad:fd:be # -33'
p1043
aS'0:1f:3c:ad:fd:be # -35'
p1044
aS'0:1f:3c:ad:fd:be # -35'
p1045
aS'0:1f:3c:ad:fd:be # -31'
p1046
aS'0:1f:3c:ad:fd:be # -29'
p1047
aS'0:1f:3c:ad:fd:be # -29'
p1048
aS'0:1f:3c:ad:fd:be # -29'
p1049
aS'0:1f:3c:ad:fd:be # -29'
p1050
aS'0:1f:3c:ad:fd:be # -29'
p1051
aS'0:1f:3c:ad:fd:be # -29'
p1052
aS'0:1f:3c:ad:fd:be # -29'
p1053
aS'0:1f:3c:ad:fd:be # -29'
p1054
aS'0:1f:3c:ad:fd:be # -29'
p1055
aS'0:1f:3c:ad:fd:be # -29'
p1056
aS'0:1f:3c:ad:fd:be # -31'
p1057
aS'0:1f:3c:ad:fd:be # -35'
p1058
aS'0:1f:3c:ad:fd:be # -35'
p1059
aS'0:1f:3c:ad:fd:be # -29'
p1060
aS'0:1f:3c:ad:fd:be # -29'
p1061
aS'0:1f:3c:ad:fd:be # -29'
p1062
aS'0:1f:3c:ad:fd:be # -29'
p1063
aS'0:1f:3c:ad:fd:be # -33'
p1064
aS'0:1f:3c:ad:fd:be # -35'
p1065
aS'0:1f:3c:ad:fd:be # -35'
p1066
aS'0:1f:3c:ad:fd:be # -35'
p1067
aS'0:1f:3c:ad:fd:be # -35'
p1068
aS'0:1f:3c:ad:fd:be # -35'
p1069
aS'0:1f:3c:ad:fd:be # -33'
p1070
aS'0:1f:3c:ad:fd:be # -35'
p1071
aS'0:1f:3c:ad:fd:be # -35'
p1072
aS'0:1f:3c:ad:fd:be # -33'
p1073
aS'0:1f:3c:ad:fd:be # -33'
p1074
aS'0:1f:3c:ad:fd:be # -33'
p1075
aS'0:1f:3c:ad:fd:be # -33'
p1076
aS'0:1f:3c:ad:fd:be # -35'
p1077
aS'0:1f:3c:ad:fd:be # -35'
p1078
aS'0:1f:3c:ad:fd:be # -35'
p1079
aS'0:1f:3c:ad:fd:be # -35'
p1080
aS'0:1f:3c:ad:fd:be # -35'
p1081
aS'0:1f:3c:ad:fd:be # -35'
p1082
aS'0:1f:3c:ad:fd:be # -35'
p1083
aS'0:1f:3c:ad:fd:be # -33'
p1084
aS'0:1f:3c:ad:fd:be # -33'
p1085
aS'0:1f:3c:ad:fd:be # -33'
p1086
aS'0:1f:3c:ad:fd:be # -25'
p1087
aS'0:1f:3c:ad:fd:be # -27'
p1088
aS'0:1f:3c:ad:fd:be # -35'
p1089
aS'0:1f:3c:ad:fd:be # -35'
p1090
aS'0:1f:3c:ad:fd:be # -33'
p1091
aS'0:1f:3c:ad:fd:be # -35'
p1092
aS'0:1f:3c:ad:fd:be # -35'
p1093
aS'0:1f:3c:ad:fd:be # -25'
p1094
aS'0:1f:3c:ad:fd:be # -25'
p1095
aS'0:1f:3c:ad:fd:be # -27'
p1096
aS'0:1f:3c:ad:fd:be # -27'
p1097
aS'0:1f:3c:ad:fd:be # -27'
p1098
aS'0:1f:3c:ad:fd:be # -27'
p1099
aS'0:1f:3c:ad:fd:be # -27'
p1100
aS'0:1f:3c:ad:fd:be # -27'
p1101
aS'0:1f:3c:ad:fd:be # -27'
p1102
aS'0:1f:3c:ad:fd:be # -27'
p1103
aS'0:1f:3c:ad:fd:be # -27'
p1104
aS'0:1f:3c:ad:fd:be # -27'
p1105
aS'0:1f:3c:ad:fd:be # -27'
p1106
aS'0:1f:3c:ad:fd:be # -27'
p1107
aS'0:1f:3c:ad:fd:be # -25'
p1108
aS'0:1f:3c:ad:fd:be # -25'
p1109
aS'0:1f:3c:ad:fd:be # -25'
p1110
aS'0:1f:3c:ad:fd:be # -25'
p1111
aS'0:1f:3c:ad:fd:be # -25'
p1112
aS'0:1f:3c:ad:fd:be # -25'
p1113
aS'0:1f:3c:ad:fd:be # -25'
p1114
aS'0:1f:3c:ad:fd:be # -25'
p1115
aS'0:1f:3c:ad:fd:be # -27'
p1116
aS'0:1f:3c:ad:fd:be # -25'
p1117
aS'0:1f:3c:ad:fd:be # -25'
p1118
aS'0:1f:3c:ad:fd:be # -25'
p1119
aS'0:1f:3c:ad:fd:be # -25'
p1120
aS'0:1f:3c:ad:fd:be # -25'
p1121
aS'0:1f:3c:ad:fd:be # -25'
p1122
aS'0:1f:3c:ad:fd:be # -25'
p1123
aS'0:1f:3c:ad:fd:be # -25'
p1124
aS'0:1f:3c:ad:fd:be # -25'
p1125
aS'0:1f:3c:ad:fd:be # -25'
p1126
aS'0:1f:3c:ad:fd:be # -25'
p1127
aS'0:1f:3c:ad:fd:be # -25'
p1128
aS'0:1f:3c:ad:fd:be # -25'
p1129
aS'0:1f:3c:ad:fd:be # -25'
p1130
aS'0:1f:3c:ad:fd:be # -25'
p1131
aS'0:1f:3c:ad:fd:be # -25'
p1132
aS'0:1f:3c:ad:fd:be # -25'
p1133
aS'0:1f:3c:ad:fd:be # -25'
p1134
aS'0:1f:3c:ad:fd:be # -25'
p1135
aS'0:1f:3c:ad:fd:be # -25'
p1136
aS'0:1f:3c:ad:fd:be # -25'
p1137
aS'0:1f:3c:ad:fd:be # -25'
p1138
aS'0:1f:3c:ad:fd:be # -25'
p1139
aS'0:1f:3c:ad:fd:be # -25'
p1140
aS'0:1f:3c:ad:fd:be # -25'
p1141
aS'0:1f:3c:ad:fd:be # -25'
p1142
aS'0:1f:3c:ad:fd:be # -25'
p1143
aS'0:1f:3c:ad:fd:be # -25'
p1144
aS'0:1f:3c:ad:fd:be # -25'
p1145
aS'0:1f:3c:ad:fd:be # -25'
p1146
aS'0:1f:3c:ad:fd:be # -25'
p1147
aS'0:1f:3c:ad:fd:be # -25'
p1148
aS'0:1f:3c:ad:fd:be # -25'
p1149
aS'0:1f:3c:ad:fd:be # -29'
p1150
aS'0:1f:3c:ad:fd:be # -29'
p1151
aS'0:1f:3c:ad:fd:be # -29'
p1152
aS'0:1f:3c:ad:fd:be # -29'
p1153
aS'0:1f:3c:ad:fd:be # -31'
p1154
aS'0:1f:3c:ad:fd:be # -29'
p1155
aS'0:1f:3c:ad:fd:be # -29'
p1156
aS'0:1f:3c:ad:fd:be # -27'
p1157
aS'0:1f:3c:ad:fd:be # -29'
p1158
aS'0:1f:3c:ad:fd:be # -29'
p1159
aS'0:1f:3c:ad:fd:be # -29'
p1160
aS'0:1f:3c:ad:fd:be # -31'
p1161
aS'0:1f:3c:ad:fd:be # -31'
p1162
aS'0:1f:3c:ad:fd:be # -33'
p1163
aS'0:1f:3c:ad:fd:be # -33'
p1164
aS'0:1f:3c:ad:fd:be # -33'
p1165
aS'0:1f:3c:ad:fd:be # -33'
p1166
aS'0:1f:3c:ad:fd:be # -31'
p1167
aS'0:1f:3c:ad:fd:be # -33'
p1168
aS'0:1f:3c:ad:fd:be # -33'
p1169
aS'0:1f:3c:ad:fd:be # -33'
p1170
aS'0:1f:3c:ad:fd:be # -33'
p1171
aS'0:1f:3c:ad:fd:be # -33'
p1172
aS'0:1f:3c:ad:fd:be # -31'
p1173
aS'0:1f:3c:ad:fd:be # -33'
p1174
aS'0:1f:3c:ad:fd:be # -33'
p1175
aS'0:1f:3c:ad:fd:be # -31'
p1176
aS'0:1f:3c:ad:fd:be # -31'
p1177
aS'0:1f:3c:ad:fd:be # -31'
p1178
aS'0:1f:3c:ad:fd:be # -31'
p1179
aS'0:1f:3c:ad:fd:be # -31'
p1180
aS'0:1f:3c:ad:fd:be # -31'
p1181
aS'0:1f:3c:ad:fd:be # -31'
p1182
aS'0:1f:3c:ad:fd:be # -31'
p1183
aS'0:1f:3c:ad:fd:be # -29'
p1184
aS'0:1f:3c:ad:fd:be # -29'
p1185
aS'0:1f:3c:ad:fd:be # -23'
p1186
aS'0:1f:3c:ad:fd:be # -25'
p1187
aS'0:1f:3c:ad:fd:be # -23'
p1188
aS'0:1f:3c:ad:fd:be # -25'
p1189
aS'0:1f:3c:ad:fd:be # -23'
p1190
aS'0:1f:3c:ad:fd:be # -23'
p1191
aS'0:1f:3c:ad:fd:be # -25'
p1192
aS'0:1f:3c:ad:fd:be # -25'
p1193
aS'0:1f:3c:ad:fd:be # -25'
p1194
aS'0:1f:3c:ad:fd:be # -25'
p1195
aS'0:1f:3c:ad:fd:be # -25'
p1196
aS'0:1f:3c:ad:fd:be # -25'
p1197
aS'0:1f:3c:ad:fd:be # -25'
p1198
aS'0:1f:3c:ad:fd:be # -23'
p1199
aS'0:1f:3c:ad:fd:be # -25'
p1200
aS'0:1f:3c:ad:fd:be # -23'
p1201
aS'0:1f:3c:ad:fd:be # -25'
p1202
aS'0:1f:3c:ad:fd:be # -27'
p1203
aS'0:1f:3c:ad:fd:be # -25'
p1204
aS'0:1f:3c:ad:fd:be # -25'
p1205
aS'0:1f:3c:ad:fd:be # -25'
p1206
aS'0:1f:3c:ad:fd:be # -25'
p1207
aS'0:1f:3c:ad:fd:be # -25'
p1208
aS'0:1f:3c:ad:fd:be # -25'
p1209
aS'0:1f:3c:ad:fd:be # -25'
p1210
aS'0:1f:3c:ad:fd:be # -25'
p1211
aS'0:1f:3c:ad:fd:be # -33'
p1212
aS'0:1f:3c:ad:fd:be # -33'
p1213
aS'0:1f:3c:ad:fd:be # -33'
p1214
aS'0:1f:3c:ad:fd:be # -33'
p1215
aS'0:1f:3c:ad:fd:be # -33'
p1216
aS'0:1f:3c:ad:fd:be # -35'
p1217
aS'0:1f:3c:ad:fd:be # -35'
p1218
aS'0:1f:3c:ad:fd:be # -35'
p1219
aS'0:1f:3c:ad:fd:be # -35'
p1220
aS'0:1f:3c:ad:fd:be # -35'
p1221
aS'0:1f:3c:ad:fd:be # -35'
p1222
aS'0:1f:3c:ad:fd:be # -33'
p1223
aS'0:1f:3c:ad:fd:be # -33'
p1224
aS'0:1f:3c:ad:fd:be # -35'
p1225
aS'0:1f:3c:ad:fd:be # -35'
p1226
aS'0:1f:3c:ad:fd:be # -33'
p1227
aS'0:1f:3c:ad:fd:be # -33'
p1228
aS'0:1f:3c:ad:fd:be # -33'
p1229
aS'0:1f:3c:ad:fd:be # -33'
p1230
aS'0:1f:3c:ad:fd:be # -33'
p1231
aS'0:1f:3c:ad:fd:be # -33'
p1232
aS'0:1f:3c:ad:fd:be # -33'
p1233
aS'0:1f:3c:ad:fd:be # -33'
p1234
aS'0:1f:3c:ad:fd:be # -33'
p1235
aS'0:1f:3c:ad:fd:be # -29'
p1236
aS'0:1f:3c:ad:fd:be # -29'
p1237
aS'0:1f:3c:ad:fd:be # -29'
p1238
aS'0:1f:3c:ad:fd:be # -29'
p1239
aS'0:1f:3c:ad:fd:be # -29'
p1240
aS'0:1f:3c:ad:fd:be # -29'
p1241
aS'0:1f:3c:ad:fd:be # -29'
p1242
aS'0:1f:3c:ad:fd:be # -29'
p1243
aS'0:1f:3c:ad:fd:be # -29'
p1244
aS'0:1f:3c:ad:fd:be # -29'
p1245
aS'0:1f:3c:ad:fd:be # -23'
p1246
aS'0:1f:3c:ad:fd:be # -21'
p1247
aS'0:1f:3c:ad:fd:be # -25'
p1248
aS'0:1f:3c:ad:fd:be # -25'
p1249
aS'0:1f:3c:ad:fd:be # -25'
p1250
aS'0:1f:3c:ad:fd:be # -27'
p1251
aS'0:1f:3c:ad:fd:be # -27'
p1252
aS'0:1f:3c:ad:fd:be # -25'
p1253
aS'0:1f:3c:ad:fd:be # -25'
p1254
aS'0:1f:3c:ad:fd:be # -25'
p1255
aS'0:1f:3c:ad:fd:be # -25'
p1256
aS'0:1f:3c:ad:fd:be # -25'
p1257
aS'0:1f:3c:ad:fd:be # -25'
p1258
aS'0:1f:3c:ad:fd:be # -25'
p1259
aS'0:1f:3c:ad:fd:be # -25'
p1260
aS'0:1f:3c:ad:fd:be # -25'
p1261
aS'0:1f:3c:ad:fd:be # -25'
p1262
aS'0:1f:3c:ad:fd:be # -25'
p1263
aS'0:1f:3c:ad:fd:be # -25'
p1264
aS'0:1f:3c:ad:fd:be # -25'
p1265
aS'0:1f:3c:ad:fd:be # -25'
p1266
aS'0:1f:3c:ad:fd:be # -25'
p1267
aS'0:1f:3c:ad:fd:be # -25'
p1268
aS'0:1f:3c:ad:fd:be # -25'
p1269
aS'0:1f:3c:ad:fd:be # -25'
p1270
aS'0:1f:3c:ad:fd:be # -27'
p1271
aS'0:1f:3c:ad:fd:be # -25'
p1272
aS'0:1f:3c:ad:fd:be # -29'
p1273
aS'0:1f:3c:ad:fd:be # -33'
p1274
aS'0:1f:3c:ad:fd:be # -35'
p1275
aS'0:1f:3c:ad:fd:be # -29'
p1276
aS'0:1f:3c:ad:fd:be # -31'
p1277
aS'0:1f:3c:ad:fd:be # -31'
p1278
aS'0:1f:3c:ad:fd:be # -31'
p1279
aS'0:1f:3c:ad:fd:be # -31'
p1280
aS'0:1f:3c:ad:fd:be # -31'
p1281
aS'0:1f:3c:ad:fd:be # -31'
p1282
aS'0:1f:3c:ad:fd:be # -31'
p1283
aS'0:1f:3c:ad:fd:be # -31'
p1284
aS'0:1f:3c:ad:fd:be # -27'
p1285
aS'0:1f:3c:ad:fd:be # -27'
p1286
aS'0:1f:3c:ad:fd:be # -23'
p1287
aS'0:1f:3c:ad:fd:be # -23'
p1288
aS'0:1f:3c:ad:fd:be # -25'
p1289
aS'0:1f:3c:ad:fd:be # -25'
p1290
aS'0:1f:3c:ad:fd:be # -23'
p1291
aS'0:1f:3c:ad:fd:be # -23'
p1292
aS'0:1f:3c:ad:fd:be # -25'
p1293
aS'0:1f:3c:ad:fd:be # -23'
p1294
aS'0:1f:3c:ad:fd:be # -23'
p1295
aS'0:1f:3c:ad:fd:be # -29'
p1296
aS'0:1f:3c:ad:fd:be # -29'
p1297
aS'0:1f:3c:ad:fd:be # -29'
p1298
aS'0:1f:3c:ad:fd:be # -31'
p1299
aS'0:1f:3c:ad:fd:be # -29'
p1300
aS'0:1f:3c:ad:fd:be # -29'
p1301
aS'0:1f:3c:ad:fd:be # -29'
p1302
aS'0:1f:3c:ad:fd:be # -29'
p1303
aS'0:1f:3c:ad:fd:be # -29'
p1304
aS'0:1f:3c:ad:fd:be # -29'
p1305
aS'0:1f:3c:ad:fd:be # -29'
p1306
aS'0:1f:3c:ad:fd:be # -31'
p1307
aS'0:1f:3c:ad:fd:be # -29'
p1308
aS'0:1f:3c:ad:fd:be # -29'
p1309
aS'0:1f:3c:ad:fd:be # -29'
p1310
aS'0:1f:3c:ad:fd:be # -29'
p1311
aS'0:1f:3c:ad:fd:be # -33'
p1312
aS'0:1f:3c:ad:fd:be # -35'
p1313
aS'0:1f:3c:ad:fd:be # -35'
p1314
aS'0:1f:3c:ad:fd:be # -35'
p1315
aS'0:1f:3c:ad:fd:be # -35'
p1316
aS'0:1f:3c:ad:fd:be # -35'
p1317
aS'0:1f:3c:ad:fd:be # -35'
p1318
aS'0:1f:3c:ad:fd:be # -35'
p1319
aS'0:1f:3c:ad:fd:be # -35'
p1320
aS'0:1f:3c:ad:fd:be # -35'
p1321
aS'0:1f:3c:ad:fd:be # -35'
p1322
aS'0:1f:3c:ad:fd:be # -35'
p1323
aS'0:1f:3c:ad:fd:be # -35'
p1324
aS'0:1f:3c:ad:fd:be # -35'
p1325
aS'0:1f:3c:ad:fd:be # -35'
p1326
aS'0:1f:3c:ad:fd:be # -35'
p1327
aS'0:1f:3c:ad:fd:be # -35'
p1328
aS'0:1f:3c:ad:fd:be # -35'
p1329
aS'0:1f:3c:ad:fd:be # -35'
p1330
aS'0:1f:3c:ad:fd:be # -35'
p1331
aS'0:1f:3c:ad:fd:be # -35'
p1332
aS'0:1f:3c:ad:fd:be # -35'
p1333
aS'0:1f:3c:ad:fd:be # -35'
p1334
aS'0:1f:3c:ad:fd:be # -35'
p1335
aS'0:1f:3c:ad:fd:be # -35'
p1336
aS'0:1f:3c:ad:fd:be # -35'
p1337
aS'0:1f:3c:ad:fd:be # -35'
p1338
aS'0:1f:3c:ad:fd:be # -35'
p1339
aS'0:1f:3c:ad:fd:be # -35'
p1340
aS'0:1f:3c:ad:fd:be # -35'
p1341
aS'0:1f:3c:ad:fd:be # -35'
p1342
aS'0:1f:3c:ad:fd:be # -35'
p1343
aS'0:1f:3c:ad:fd:be # -35'
p1344
aS'0:1f:3c:ad:fd:be # -33'
p1345
aS'0:1f:3c:ad:fd:be # -35'
p1346
aS'0:1f:3c:ad:fd:be # -33'
p1347
aS'0:1f:3c:ad:fd:be # -33'
p1348
aS'0:1f:3c:ad:fd:be # -35'
p1349
aS'0:1f:3c:ad:fd:be # -35'
p1350
aS'0:1f:3c:ad:fd:be # -33'
p1351
aS'0:1f:3c:ad:fd:be # -33'
p1352
aS'0:1f:3c:ad:fd:be # -33'
p1353
aS'0:1f:3c:ad:fd:be # -33'
p1354
aS'0:1f:3c:ad:fd:be # -33'
p1355
aS'0:1f:3c:ad:fd:be # -33'
p1356
aS'0:1f:3c:ad:fd:be # -33'
p1357
aS'0:1f:3c:ad:fd:be # -33'
p1358
aS'0:1f:3c:ad:fd:be # -33'
p1359
aS'0:1f:3c:ad:fd:be # -33'
p1360
aS'0:1f:3c:ad:fd:be # -31'
p1361
aS'0:1f:3c:ad:fd:be # -31'
p1362
aS'0:1f:3c:ad:fd:be # -33'
p1363
aS'0:1f:3c:ad:fd:be # -33'
p1364
aS'0:1f:3c:ad:fd:be # -33'
p1365
aS'0:1f:3c:ad:fd:be # -31'
p1366
aS'0:1f:3c:ad:fd:be # -33'
p1367
aS'0:1f:3c:ad:fd:be # -31'
p1368
aS'0:1f:3c:ad:fd:be # -31'
p1369
aS'0:1f:3c:ad:fd:be # -31'
p1370
aS'0:1f:3c:ad:fd:be # -31'
p1371
aS'0:1f:3c:ad:fd:be # -31'
p1372
aS'0:1f:3c:ad:fd:be # -31'
p1373
aS'0:1f:3c:ad:fd:be # -31'
p1374
aS'0:1f:3c:ad:fd:be # -29'
p1375
aS'0:1f:3c:ad:fd:be # -29'
p1376
aS'0:1f:3c:ad:fd:be # -29'
p1377
aS'0:1f:3c:ad:fd:be # -29'
p1378
aS'0:1f:3c:ad:fd:be # -31'
p1379
aS'0:1f:3c:ad:fd:be # -29'
p1380
aS'0:1f:3c:ad:fd:be # -31'
p1381
aS'0:1f:3c:ad:fd:be # -29'
p1382
aS'0:1f:3c:ad:fd:be # -29'
p1383
aS'0:1f:3c:ad:fd:be # -29'
p1384
aS'0:1f:3c:ad:fd:be # -31'
p1385
aS'0:1f:3c:ad:fd:be # -29'
p1386
aS'0:1f:3c:ad:fd:be # -29'
p1387
aS'0:1f:3c:ad:fd:be # -29'
p1388
aS'0:1f:3c:ad:fd:be # -29'
p1389
aS'0:1f:3c:ad:fd:be # -29'
p1390
aS'0:1f:3c:ad:fd:be # -3'
p1391
aS'0:1f:3c:ad:fd:be # -31'
p1392
aS'0:1f:3c:ad:fd:be # -31'
p1393
aS'8c:b6:4f:2a:d8:d0 # -75'
p1394
aS'8c:b6:4f:2a:d8:d0 # -33'
p1395
aS'0:1f:3c:ad:fd:be # -33'
p1396
aS'0:1f:3c:ad:fd:be # -33'
p1397
aS'0:1f:3c:ad:fd:be # -33'
p1398
aS'0:1f:3c:ad:fd:be # -33'
p1399
aS'0:1f:3c:ad:fd:be # -33'
p1400
aS'0:1f:3c:ad:fd:be # -33'
p1401
aS'0:1f:3c:ad:fd:be # -33'
p1402
aS'0:1f:3c:ad:fd:be # -39'
p1403
aS'0:1f:3c:ad:fd:be # -43'
p1404
aS'0:1f:3c:ad:fd:be # -43'
p1405
aS'0:1f:3c:ad:fd:be # -35'
p1406
aS'0:1f:3c:ad:fd:be # -35'
p1407
aS'0:1f:3c:ad:fd:be # -35'
p1408
aS'0:1f:3c:ad:fd:be # -31'
p1409
aS'0:1f:3c:ad:fd:be # -31'
p1410
aS'0:1f:3c:ad:fd:be # -31'
p1411
aS'0:1f:3c:ad:fd:be # -31'
p1412
aS'0:1f:3c:ad:fd:be # -31'
p1413
aS'0:1f:3c:ad:fd:be # -31'
p1414
aS'0:1f:3c:ad:fd:be # -31'
p1415
aS'0:1f:3c:ad:fd:be # -31'
p1416
aS'0:1f:3c:ad:fd:be # -31'
p1417
aS'0:1f:3c:ad:fd:be # -31'
p1418
aS'0:1f:3c:ad:fd:be # -31'
p1419
aS'0:1f:3c:ad:fd:be # -31'
p1420
aS'0:1f:3c:ad:fd:be # -31'
p1421
aS'0:1f:3c:ad:fd:be # -31'
p1422
aS'0:1f:3c:ad:fd:be # -31'
p1423
aS'0:1f:3c:ad:fd:be # -31'
p1424
aS'0:1f:3c:ad:fd:be # -31'
p1425
aS'0:1f:3c:ad:fd:be # -31'
p1426
aS'0:1f:3c:ad:fd:be # -31'
p1427
aS'0:1f:3c:ad:fd:be # -31'
p1428
aS'0:1f:3c:ad:fd:be # -31'
p1429
aS'0:1f:3c:ad:fd:be # -31'
p1430
aS'0:1f:3c:ad:fd:be # -33'
p1431
aS'0:1f:3c:ad:fd:be # -33'
p1432
aS'0:1f:3c:ad:fd:be # -33'
p1433
aS'0:1f:3c:ad:fd:be # -33'
p1434
aS'0:1f:3c:ad:fd:be # -33'
p1435
aS'0:1f:3c:ad:fd:be # -33'
p1436
aS'0:1f:3c:ad:fd:be # -33'
p1437
aS'0:1f:3c:ad:fd:be # -35'
p1438
aS'0:1f:3c:ad:fd:be # -35'
p1439
aS'0:1f:3c:ad:fd:be # -35'
p1440
aS'0:1f:3c:ad:fd:be # -35'
p1441
aS'0:1f:3c:ad:fd:be # -35'
p1442
aS'0:1f:3c:ad:fd:be # -35'
p1443
aS'0:1f:3c:ad:fd:be # -33'
p1444
aS'0:1f:3c:ad:fd:be # -33'
p1445
aS'0:1f:3c:ad:fd:be # -33'
p1446
aS'0:1f:3c:ad:fd:be # -35'
p1447
aS'0:1f:3c:ad:fd:be # -35'
p1448
aS'0:1f:3c:ad:fd:be # -35'
p1449
aS'0:1f:3c:ad:fd:be # -35'
p1450
aS'0:1f:3c:ad:fd:be # -37'
p1451
aS'0:1f:3c:ad:fd:be # -37'
p1452
aS'0:1f:3c:ad:fd:be # -39'
p1453
aS'0:1f:3c:ad:fd:be # -39'
p1454
aS'0:1f:3c:ad:fd:be # -29'
p1455
aS'0:1f:3c:ad:fd:be # -29'
p1456
aS'0:1f:3c:ad:fd:be # -27'
p1457
aS'0:1f:3c:ad:fd:be # -25'
p1458
aS'0:1f:3c:ad:fd:be # -23'
p1459
aS'0:1f:3c:ad:fd:be # -23'
p1460
aS'0:1f:3c:ad:fd:be # -25'
p1461
aS'0:1f:3c:ad:fd:be # -25'
p1462
aS'0:1f:3c:ad:fd:be # -23'
p1463
aS'0:1f:3c:ad:fd:be # -23'
p1464
aS'0:1f:3c:ad:fd:be # -25'
p1465
aS'0:1f:3c:ad:fd:be # -23'
p1466
aS'0:1f:3c:ad:fd:be # -25'
p1467
aS'0:1f:3c:ad:fd:be # -25'
p1468
aS'0:1f:3c:ad:fd:be # -25'
p1469
aS'0:1f:3c:ad:fd:be # -33'
p1470
aS'0:1f:3c:ad:fd:be # -31'
p1471
aS'0:1f:3c:ad:fd:be # -29'
p1472
aS'0:1f:3c:ad:fd:be # -29'
p1473
aS'0:1f:3c:ad:fd:be # -29'
p1474
aS'0:1f:3c:ad:fd:be # -29'
p1475
aS'0:1f:3c:ad:fd:be # -29'
p1476
aS'0:1f:3c:ad:fd:be # -29'
p1477
aS'0:1f:3c:ad:fd:be # -29'
p1478
aS'0:1f:3c:ad:fd:be # -29'
p1479
aS'0:1f:3c:ad:fd:be # -29'
p1480
aS'0:1f:3c:ad:fd:be # -29'
p1481
aS'0:1f:3c:ad:fd:be # -29'
p1482
aS'0:1f:3c:ad:fd:be # -29'
p1483
aS'0:1f:3c:ad:fd:be # -29'
p1484
aS'0:1f:3c:ad:fd:be # -29'
p1485
aS'0:1f:3c:ad:fd:be # -29'
p1486
aS'0:1f:3c:ad:fd:be # -29'
p1487
aS'0:1f:3c:ad:fd:be # -29'
p1488
aS'0:1f:3c:ad:fd:be # -29'
p1489
aS'0:1f:3c:ad:fd:be # -29'
p1490
aS'0:1f:3c:ad:fd:be # -29'
p1491
aS'0:1f:3c:ad:fd:be # -29'
p1492
aS'0:1f:3c:ad:fd:be # -29'
p1493
aS'0:1f:3c:ad:fd:be # -25'
p1494
aS'0:1f:3c:ad:fd:be # -27'
p1495
aS'0:1f:3c:ad:fd:be # -25'
p1496
aS'0:1f:3c:ad:fd:be # -25'
p1497
aS'0:1f:3c:ad:fd:be # -25'
p1498
aS'0:1f:3c:ad:fd:be # -25'
p1499
aS'0:1f:3c:ad:fd:be # -25'
p1500
aS'0:1f:3c:ad:fd:be # -25'
p1501
aS'0:1f:3c:ad:fd:be # -25'
p1502
aS'0:1f:3c:ad:fd:be # -25'
p1503
aS'0:1f:3c:ad:fd:be # -25'
p1504
aS'0:1f:3c:ad:fd:be # -23'
p1505
aS'0:1f:3c:ad:fd:be # -23'
p1506
aS'0:1f:3c:ad:fd:be # -25'
p1507
aS'0:1f:3c:ad:fd:be # -23'
p1508
aS'0:1f:3c:ad:fd:be # -23'
p1509
aS'0:1f:3c:ad:fd:be # -23'
p1510
aS'0:1f:3c:ad:fd:be # -23'
p1511
aS'0:1f:3c:ad:fd:be # -23'
p1512
aS'0:1f:3c:ad:fd:be # -23'
p1513
aS'0:1f:3c:ad:fd:be # -23'
p1514
aS'0:1f:3c:ad:fd:be # -23'
p1515
aS'0:1f:3c:ad:fd:be # -27'
p1516
aS'0:1f:3c:ad:fd:be # -27'
p1517
aS'0:1f:3c:ad:fd:be # -27'
p1518
aS'0:1f:3c:ad:fd:be # -23'
p1519
aS'0:1f:3c:ad:fd:be # -23'
p1520
aS'0:1f:3c:ad:fd:be # -23'
p1521
aS'0:1f:3c:ad:fd:be # -31'
p1522
aS'0:1f:3c:ad:fd:be # -33'
p1523
aS'0:1f:3c:ad:fd:be # -33'
p1524
aS'0:1f:3c:ad:fd:be # -33'
p1525
aS'0:1f:3c:ad:fd:be # -33'
p1526
aS'0:1f:3c:ad:fd:be # -33'
p1527
aS'0:1f:3c:ad:fd:be # -35'
p1528
aS'0:1f:3c:ad:fd:be # -35'
p1529
aS'0:1f:3c:ad:fd:be # -35'
p1530
aS'0:1f:3c:ad:fd:be # -35'
p1531
aS'0:1f:3c:ad:fd:be # -35'
p1532
aS'0:1f:3c:ad:fd:be # -35'
p1533
aS'0:1f:3c:ad:fd:be # -35'
p1534
aS'0:1f:3c:ad:fd:be # -35'
p1535
aS'0:1f:3c:ad:fd:be # -25'
p1536
aS'0:1f:3c:ad:fd:be # -25'
p1537
aS'0:1f:3c:ad:fd:be # -27'
p1538
aS'0:1f:3c:ad:fd:be # -27'
p1539
aS'0:1f:3c:ad:fd:be # -27'
p1540
aS'0:1f:3c:ad:fd:be # -25'
p1541
aS'0:1f:3c:ad:fd:be # -25'
p1542
aS'0:1f:3c:ad:fd:be # -25'
p1543
aS'0:1f:3c:ad:fd:be # -25'
p1544
aS'0:1f:3c:ad:fd:be # -27'
p1545
aS'0:1f:3c:ad:fd:be # -29'
p1546
aS'0:1f:3c:ad:fd:be # -27'
p1547
aS'0:1f:3c:ad:fd:be # -29'
p1548
aS'0:1f:3c:ad:fd:be # -29'
p1549
aS'0:1f:3c:ad:fd:be # -27'
p1550
aS'0:1f:3c:ad:fd:be # -29'
p1551
aS'0:1f:3c:ad:fd:be # -27'
p1552
aS'0:1f:3c:ad:fd:be # -29'
p1553
aS'0:1f:3c:ad:fd:be # -29'
p1554
aS'0:1f:3c:ad:fd:be # -29'
p1555
aS'0:1f:3c:ad:fd:be # -31'
p1556
aS'0:1f:3c:ad:fd:be # -27'
p1557
aS'0:1f:3c:ad:fd:be # -29'
p1558
aS'0:1f:3c:ad:fd:be # -29'
p1559
aS'0:1f:3c:ad:fd:be # -29'
p1560
aS'0:1f:3c:ad:fd:be # -29'
p1561
aS'0:1f:3c:ad:fd:be # -29'
p1562
aS'0:1f:3c:ad:fd:be # -29'
p1563
aS'0:1f:3c:ad:fd:be # -29'
p1564
aS'0:1f:3c:ad:fd:be # -29'
p1565
aS'0:1f:3c:ad:fd:be # -31'
p1566
aS'0:1f:3c:ad:fd:be # -29'
p1567
aS'0:1f:3c:ad:fd:be # -31'
p1568
aS'0:1f:3c:ad:fd:be # -31'
p1569
aS'0:1f:3c:ad:fd:be # -31'
p1570
aS'0:1f:3c:ad:fd:be # -31'
p1571
aS'0:1f:3c:ad:fd:be # -31'
p1572
aS'0:1f:3c:ad:fd:be # -33'
p1573
aS'0:1f:3c:ad:fd:be # -33'
p1574
aS'0:1f:3c:ad:fd:be # -33'
p1575
aS'0:1f:3c:ad:fd:be # -33'
p1576
aS'0:1f:3c:ad:fd:be # -33'
p1577
aS'0:1f:3c:ad:fd:be # -35'
p1578
aS'0:1f:3c:ad:fd:be # -43'
p1579
aS'0:1f:3c:ad:fd:be # -41'
p1580
aS'0:1f:3c:ad:fd:be # -33'
p1581
aS'0:1f:3c:ad:fd:be # -3'
p1582
aS'0:1f:3c:ad:fd:be # -31'
p1583
aS'0:1f:3c:ad:fd:be # -31'
p1584
aS'0:1f:3c:ad:fd:be # -31'
p1585
aS'0:1f:3c:ad:fd:be # -29'
p1586
aS'0:1f:3c:ad:fd:be # -27'
p1587
aS'0:1f:3c:ad:fd:be # -29'
p1588
aS'0:1f:3c:ad:fd:be # -29'
p1589
aS'0:1f:3c:ad:fd:be # -29'
p1590
aS'0:1f:3c:ad:fd:be # -29'
p1591
aS'0:1f:3c:ad:fd:be # -29'
p1592
aS'0:1f:3c:ad:fd:be # -29'
p1593
aS'0:1f:3c:ad:fd:be # -29'
p1594
aS'0:1f:3c:ad:fd:be # -29'
p1595
aS'0:1f:3c:ad:fd:be # -29'
p1596
aS'0:1f:3c:ad:fd:be # -29'
p1597
aS'0:1f:3c:ad:fd:be # -29'
p1598
aS'0:1f:3c:ad:fd:be # -29'
p1599
aS'0:1f:3c:ad:fd:be # -25'
p1600
aS'0:1f:3c:ad:fd:be # -27'
p1601
aS'0:1f:3c:ad:fd:be # -27'
p1602
aS'0:1f:3c:ad:fd:be # -27'
p1603
aS'0:1f:3c:ad:fd:be # -27'
p1604
aS'0:1f:3c:ad:fd:be # -27'
p1605
aS'0:1f:3c:ad:fd:be # -25'
p1606
aS'0:1f:3c:ad:fd:be # -27'
p1607
aS'0:1f:3c:ad:fd:be # -27'
p1608
aS'0:1f:3c:ad:fd:be # -27'
p1609
aS'0:1f:3c:ad:fd:be # -27'
p1610
aS'0:1f:3c:ad:fd:be # -27'
p1611
aS'0:1f:3c:ad:fd:be # -27'
p1612
aS'0:1f:3c:ad:fd:be # -27'
p1613
aS'0:1f:3c:ad:fd:be # -29'
p1614
aS'0:1f:3c:ad:fd:be # -29'
p1615
aS'0:1f:3c:ad:fd:be # -29'
p1616
aS'0:1f:3c:ad:fd:be # -29'
p1617
aS'0:1f:3c:ad:fd:be # -29'
p1618
aS'0:1f:3c:ad:fd:be # -35'
p1619
aS'0:1f:3c:ad:fd:be # -35'
p1620
aS'0:1f:3c:ad:fd:be # -35'
p1621
aS'0:1f:3c:ad:fd:be # -35'
p1622
aS'0:1f:3c:ad:fd:be # -33'
p1623
aS'0:1f:3c:ad:fd:be # -33'
p1624
aS'0:1f:3c:ad:fd:be # -33'
p1625
aS'0:1f:3c:ad:fd:be # -33'
p1626
aS'0:1f:3c:ad:fd:be # -33'
p1627
aS'0:1f:3c:ad:fd:be # -33'
p1628
aS'0:1f:3c:ad:fd:be # -33'
p1629
aS'0:1f:3c:ad:fd:be # -33'
p1630
aS'0:1f:3c:ad:fd:be # -33'
p1631
aS'0:1f:3c:ad:fd:be # -33'
p1632
aS'0:1f:3c:ad:fd:be # -33'
p1633
aS'0:1f:3c:ad:fd:be # -33'
p1634
aS'0:1f:3c:ad:fd:be # -33'
p1635
aS'0:1f:3c:ad:fd:be # -33'
p1636
aS'0:1f:3c:ad:fd:be # -33'
p1637
aS'0:1f:3c:ad:fd:be # -33'
p1638
aS'0:1f:3c:ad:fd:be # -33'
p1639
aS'0:1f:3c:ad:fd:be # -33'
p1640
aS'0:1f:3c:ad:fd:be # -33'
p1641
aS'0:1f:3c:ad:fd:be # -33'
p1642
aS'0:1f:3c:ad:fd:be # -33'
p1643
aS'0:1f:3c:ad:fd:be # -31'
p1644
aS'0:1f:3c:ad:fd:be # -31'
p1645
aS'0:1f:3c:ad:fd:be # -33'
p1646
aS'0:1f:3c:ad:fd:be # -33'
p1647
aS'0:1f:3c:ad:fd:be # -39'
p1648
aS'0:1f:3c:ad:fd:be # -39'
p1649
aS'0:1f:3c:ad:fd:be # -37'
p1650
aS'0:1f:3c:ad:fd:be # -39'
p1651
aS'0:1f:3c:ad:fd:be # -39'
p1652
aS'0:1f:3c:ad:fd:be # -39'
p1653
aS'0:1f:3c:ad:fd:be # -35'
p1654
aS'0:1f:3c:ad:fd:be # -35'
p1655
aS'0:1f:3c:ad:fd:be # -35'
p1656
aS'0:1f:3c:ad:fd:be # -33'
p1657
aS'0:1f:3c:ad:fd:be # -35'
p1658
aS'0:1f:3c:ad:fd:be # -33'
p1659
aS'0:1f:3c:ad:fd:be # -35'
p1660
aS'0:1f:3c:ad:fd:be # -35'
p1661
aS'0:1f:3c:ad:fd:be # -35'
p1662
aS'0:1f:3c:ad:fd:be # -35'
p1663
aS'0:1f:3c:ad:fd:be # -33'
p1664
aS'0:1f:3c:ad:fd:be # -35'
p1665
aS'0:1f:3c:ad:fd:be # -33'
p1666
aS'0:1f:3c:ad:fd:be # -35'
p1667
aS'0:1f:3c:ad:fd:be # -33'
p1668
aS'0:1f:3c:ad:fd:be # -33'
p1669
aS'0:1f:3c:ad:fd:be # -33'
p1670
aS'0:1f:3c:ad:fd:be # -35'
p1671
aS'0:1f:3c:ad:fd:be # -33'
p1672
aS'0:1f:3c:ad:fd:be # -33'
p1673
aS'0:1f:3c:ad:fd:be # -33'
p1674
aS'0:1f:3c:ad:fd:be # -33'
p1675
aS'0:1f:3c:ad:fd:be # -33'
p1676
aS'0:1f:3c:ad:fd:be # -33'
p1677
aS'0:1f:3c:ad:fd:be # -33'
p1678
aS'0:1f:3c:ad:fd:be # -33'
p1679
aS'0:1f:3c:ad:fd:be # -35'
p1680
aS'0:1f:3c:ad:fd:be # -33'
p1681
aS'0:1f:3c:ad:fd:be # -33'
p1682
aS'0:1f:3c:ad:fd:be # -33'
p1683
aS'0:1f:3c:ad:fd:be # -33'
p1684
aS'0:1f:3c:ad:fd:be # -35'
p1685
aS'0:1f:3c:ad:fd:be # -33'
p1686
aS'0:1f:3c:ad:fd:be # -33'
p1687
aS'0:1f:3c:ad:fd:be # -33'
p1688
aS'0:1f:3c:ad:fd:be # -35'
p1689
aS'0:1f:3c:ad:fd:be # -33'
p1690
aS'0:1f:3c:ad:fd:be # -33'
p1691
aS'0:1f:3c:ad:fd:be # -33'
p1692
aS'0:1f:3c:ad:fd:be # -33'
p1693
aS'0:1f:3c:ad:fd:be # -33'
p1694
aS'0:1f:3c:ad:fd:be # -33'
p1695
aS'0:1f:3c:ad:fd:be # -33'
p1696
aS'0:1f:3c:ad:fd:be # -33'
p1697
aS'0:1f:3c:ad:fd:be # -33'
p1698
aS'0:1f:3c:ad:fd:be # -33'
p1699
aS'0:1f:3c:ad:fd:be # -33'
p1700
aS'0:1f:3c:ad:fd:be # -33'
p1701
aS'0:1f:3c:ad:fd:be # -33'
p1702
aS'0:1f:3c:ad:fd:be # -33'
p1703
aS'0:1f:3c:ad:fd:be # -33'
p1704
aS'0:1f:3c:ad:fd:be # -33'
p1705
aS'0:1f:3c:ad:fd:be # -33'
p1706
aS'0:1f:3c:ad:fd:be # -33'
p1707
aS'0:1f:3c:ad:fd:be # -33'
p1708
aS'0:1f:3c:ad:fd:be # -33'
p1709
aS'0:1f:3c:ad:fd:be # -33'
p1710
aS'0:1f:3c:ad:fd:be # -33'
p1711
aS'0:1f:3c:ad:fd:be # -33'
p1712
aS'0:1f:3c:ad:fd:be # -33'
p1713
aS'0:1f:3c:ad:fd:be # -33'
p1714
aS'0:1f:3c:ad:fd:be # -33'
p1715
aS'0:1f:3c:ad:fd:be # -35'
p1716
aS'0:1f:3c:ad:fd:be # -33'
p1717
aS'0:1f:3c:ad:fd:be # -33'
p1718
aS'0:1f:3c:ad:fd:be # -33'
p1719
aS'0:1f:3c:ad:fd:be # -33'
p1720
aS'0:1f:3c:ad:fd:be # -33'
p1721
aS'0:1f:3c:ad:fd:be # -33'
p1722
aS'0:1f:3c:ad:fd:be # -33'
p1723
aS'0:1f:3c:ad:fd:be # -33'
p1724
aS'0:1f:3c:ad:fd:be # -33'
p1725
aS'0:1f:3c:ad:fd:be # -33'
p1726
aS'0:1f:3c:ad:fd:be # -33'
p1727
aS'0:1f:3c:ad:fd:be # -33'
p1728
aS'0:1f:3c:ad:fd:be # -35'
p1729
aS'0:1f:3c:ad:fd:be # -33'
p1730
aS'0:1f:3c:ad:fd:be # -33'
p1731
aS'0:1f:3c:ad:fd:be # -33'
p1732
aS'0:1f:3c:ad:fd:be # -33'
p1733
aS'0:1f:3c:ad:fd:be # -33'
p1734
aS'0:1f:3c:ad:fd:be # -33'
p1735
aS'0:1f:3c:ad:fd:be # -35'
p1736
aS'0:1f:3c:ad:fd:be # -33'
p1737
aS'0:1f:3c:ad:fd:be # -33'
p1738
aS'0:1f:3c:ad:fd:be # -33'
p1739
aS'0:1f:3c:ad:fd:be # -35'
p1740
aS'0:1f:3c:ad:fd:be # -35'
p1741
aS'0:1f:3c:ad:fd:be # -33'
p1742
aS'0:1f:3c:ad:fd:be # -33'
p1743
aS'0:1f:3c:ad:fd:be # -33'
p1744
aS'0:1f:3c:ad:fd:be # -33'
p1745
aS'0:1f:3c:ad:fd:be # -35'
p1746
aS'0:1f:3c:ad:fd:be # -33'
p1747
aS'0:1f:3c:ad:fd:be # -33'
p1748
aS'0:1f:3c:ad:fd:be # -35'
p1749
aS'0:1f:3c:ad:fd:be # -33'
p1750
aS'0:1f:3c:ad:fd:be # -33'
p1751
aS'0:1f:3c:ad:fd:be # -33'
p1752
aS'0:1f:3c:ad:fd:be # -33'
p1753
aS'0:1f:3c:ad:fd:be # -33'
p1754
aS'0:1f:3c:ad:fd:be # -33'
p1755
aS'0:1f:3c:ad:fd:be # -33'
p1756
aS'0:1f:3c:ad:fd:be # -33'
p1757
aS'0:1f:3c:ad:fd:be # -35'
p1758
aS'0:1f:3c:ad:fd:be # -33'
p1759
aS'0:1f:3c:ad:fd:be # -33'
p1760
aS'0:1f:3c:ad:fd:be # -35'
p1761
aS'0:1f:3c:ad:fd:be # -33'
p1762
aS'0:1f:3c:ad:fd:be # -33'
p1763
aS'0:1f:3c:ad:fd:be # -33'
p1764
aS'0:1f:3c:ad:fd:be # -33'
p1765
aS'0:1f:3c:ad:fd:be # -33'
p1766
aS'0:1f:3c:ad:fd:be # -35'
p1767
aS'0:1f:3c:ad:fd:be # -33'
p1768
aS'0:1f:3c:ad:fd:be # -33'
p1769
aS'0:1f:3c:ad:fd:be # -33'
p1770
aS'0:1f:3c:ad:fd:be # -33'
p1771
aS'0:1f:3c:ad:fd:be # -33'
p1772
aS'0:1f:3c:ad:fd:be # -33'
p1773
aS'0:1f:3c:ad:fd:be # -33'
p1774
aS'0:1f:3c:ad:fd:be # -33'
p1775
aS'0:1f:3c:ad:fd:be # -35'
p1776
aS'0:1f:3c:ad:fd:be # -33'
p1777
aS'0:1f:3c:ad:fd:be # -35'
p1778
aS'0:1f:3c:ad:fd:be # -33'
p1779
aS'0:1f:3c:ad:fd:be # -33'
p1780
aS'0:1f:3c:ad:fd:be # -33'
p1781
aS'0:1f:3c:ad:fd:be # -33'
p1782
aS'0:1f:3c:ad:fd:be # -33'
p1783
aS'0:1f:3c:ad:fd:be # -31'
p1784
aS'0:1f:3c:ad:fd:be # -35'
p1785
aS'0:1f:3c:ad:fd:be # -33'
p1786
aS'0:1f:3c:ad:fd:be # -33'
p1787
aS'0:1f:3c:ad:fd:be # -33'
p1788
aS'0:1f:3c:ad:fd:be # -33'
p1789
aS'0:1f:3c:ad:fd:be # -33'
p1790
aS'0:1f:3c:ad:fd:be # -33'
p1791
aS'0:1f:3c:ad:fd:be # -33'
p1792
aS'0:1f:3c:ad:fd:be # -33'
p1793
aS'0:1f:3c:ad:fd:be # -33'
p1794
aS'0:1f:3c:ad:fd:be # -35'
p1795
aS'0:1f:3c:ad:fd:be # -33'
p1796
aS'0:1f:3c:ad:fd:be # -33'
p1797
aS'0:1f:3c:ad:fd:be # -33'
p1798
aS'0:1f:3c:ad:fd:be # -31'
p1799
aS'0:1f:3c:ad:fd:be # -33'
p1800
aS'0:1f:3c:ad:fd:be # -31'
p1801
aS'0:1f:3c:ad:fd:be # -35'
p1802
aS'0:1f:3c:ad:fd:be # -35'
p1803
aS'0:1f:3c:ad:fd:be # -33'
p1804
aS'0:1f:3c:ad:fd:be # -33'
p1805
aS'0:1f:3c:ad:fd:be # -33'
p1806
aS'0:1f:3c:ad:fd:be # -33'
p1807
aS'0:1f:3c:ad:fd:be # -33'
p1808
aS'0:1f:3c:ad:fd:be # -33'
p1809
aS'0:1f:3c:ad:fd:be # -33'
p1810
aS'0:1f:3c:ad:fd:be # -35'
p1811
aS'0:1f:3c:ad:fd:be # -33'
p1812
aS'0:1f:3c:ad:fd:be # -33'
p1813
aS'0:1f:3c:ad:fd:be # -33'
p1814
aS'0:1f:3c:ad:fd:be # -33'
p1815
aS'0:1f:3c:ad:fd:be # -33'
p1816
aS'0:1f:3c:ad:fd:be # -33'
p1817
aS'0:1f:3c:ad:fd:be # -33'
p1818
aS'0:1f:3c:ad:fd:be # -33'
p1819
aS'0:1f:3c:ad:fd:be # -33'
p1820
aS'0:1f:3c:ad:fd:be # -33'
p1821
aS'0:1f:3c:ad:fd:be # -33'
p1822
aS'0:1f:3c:ad:fd:be # -33'
p1823
aS'0:1f:3c:ad:fd:be # -33'
p1824
aS'0:1f:3c:ad:fd:be # -35'
p1825
aS'0:1f:3c:ad:fd:be # -33'
p1826
aS'0:1f:3c:ad:fd:be # -35'
p1827
aS'0:1f:3c:ad:fd:be # -33'
p1828
aS'0:1f:3c:ad:fd:be # -33'
p1829
aS'0:1f:3c:ad:fd:be # -35'
p1830
aS'0:1f:3c:ad:fd:be # -35'
p1831
aS'0:1f:3c:ad:fd:be # -33'
p1832
aS'0:1f:3c:ad:fd:be # -35'
p1833
aS'0:1f:3c:ad:fd:be # -33'
p1834
aS'0:1f:3c:ad:fd:be # -33'
p1835
aS'0:1f:3c:ad:fd:be # -33'
p1836
aS'0:1f:3c:ad:fd:be # -33'
p1837
aS'0:1f:3c:ad:fd:be # -35'
p1838
aS'0:1f:3c:ad:fd:be # -33'
p1839
aS'0:1f:3c:ad:fd:be # -35'
p1840
aS'0:1f:3c:ad:fd:be # -33'
p1841
aS'0:1f:3c:ad:fd:be # -33'
p1842
aS'0:1f:3c:ad:fd:be # -33'
p1843
aS'0:1f:3c:ad:fd:be # -35'
p1844
aS'0:1f:3c:ad:fd:be # -33'
p1845
aS'0:1f:3c:ad:fd:be # -33'
p1846
aS'0:1f:3c:ad:fd:be # -33'
p1847
aS'0:1f:3c:ad:fd:be # -33'
p1848
aS'0:1f:3c:ad:fd:be # -33'
p1849
aS'0:1f:3c:ad:fd:be # -33'
p1850
aS'0:1f:3c:ad:fd:be # -35'
p1851
aS'0:1f:3c:ad:fd:be # -33'
p1852
aS'0:1f:3c:ad:fd:be # -33'
p1853
aS'0:1f:3c:ad:fd:be # -35'
p1854
aS'0:1f:3c:ad:fd:be # -33'
p1855
aS'0:1f:3c:ad:fd:be # -35'
p1856
aS'0:1f:3c:ad:fd:be # -33'
p1857
aS'0:1f:3c:ad:fd:be # -33'
p1858
aS'0:1f:3c:ad:fd:be # -33'
p1859
aS'0:1f:3c:ad:fd:be # -35'
p1860
a.